(dp0
Vperson
p1
(lp2
Vderrick rose
p3
aVrussell westbrook
p4
aVderrick rose
p5
aVdwyane wade
p6
aVgeorge karl
p7
aVderrick rose
p8
aVrussell westbrook
p9
aVstephen curry
p10
aVchris paul
p11
aVbradley beal
p12
aVstephen curry
p13
aVharrison barnes
p14
aVlebron james
p15
aVanthony
p16
aVjae crowder
p17
aVdemar derozan
p18
aVbradley beal
p19
aVstephen curry
p20
aVandre drummond
p21
aVkentavious caldwell pope
p22
aVandre drummond
p23
aVkyle lowry
p24
aVstephen curry
p25
aVkareem abdul-jabbar
p26
aVstephen curry
p27
aVjames
p28
aVstephen curry
p29
aVjames harden
p30
aVrussell westbrook
p31
aVkevin durant
p32
aVkristaps porzingis
p33
aVandre iguodala
p34
aVjames
p35
aVlebron james
p36
aVandre drummond
p37
aVstephen curry
p38
aVrussell westbrook
p39
aVrussell westbrook
p40
aVkenneth faried
p41
aVharrison barnes
p42
aVrussell westbrook lamarcus aldridge
p43
aVallen iverson
p44
aVstephen curry
p45
aVblake griffin
p46
aVanthony
p47
aVsteve nash
p48
aVstephen curry
p49
aVdemi lovato
p50
aVstephen curry
p51
aVkarl anthony towns
p52
aVsteve nash
p53
aVrussell westbrook
p54
aVrussell westbrook
p55
aVkristaps porzingis
p56
aVjames
p57
aVwade
p58
aVharrison barnes
p59
aVsteve nash
p60
aVsteve nash
p61
aVsteve nash
p62
aVblake griffin
p63
aVkristaps porzingis
p64
aVkristaps porzingis
p65
aVkarl anthony towns
p66
aVlebron james
p67
aVc.j
p68
aVmccollum
p69
aVricky rubio
p70
aVrussell westbrook
p71
aVjimmy butler
p72
aVkobe bryant
p73
aVjustise winslow
p74
aVstephen curry
p75
aVkobe bryant
p76
aVkevin durant
p77
aVstephen curry
p78
aVandre drummond
p79
aVstephen curry
p80
aVstephen curry
p81
aVstephen curry
p82
aVkentavious caldwell pope
p83
aVderrick rose
p84
aVlebron james
p85
aVbarack obama
p86
aVbarack obama
p87
aVanthony davis
p88
aVstephen curry
p89
aVossie schectman
p90
aVanthony davis
p91
aVdemar derozan
p92
aVpaul george
p93
aVlang whitaker
p94
aVsekou smith
p95
aVdirk nowitzki
p96
aVtim duncan
p97
aVkobe bryant
p98
aVkevin garnett
p99
aVanthony davis
p100
aVtyler johson
p101
aVlang whitaker
p102
aVrussell westbrook
p103
aVchris paul
p104
aVgiannis antetokounmpo
p105
aVpaul george slam
p106
aVryan kelly
p107
aVkevin durant
p108
aVkawhi leonard
p109
aVjahlil okafor
p110
aVnerlens noel
p111
aVstephen curry
p112
aVlarry nance jr.
p113
aVnikola vucevic
p114
aVcody zeller
p115
aVlarry nance jr.
p116
aVvictor oladipo
p117
aVnikola vucevic
p118
aVvictor oladipo
p119
aVmario hezonja
p120
aVbill russell
p121
aVvictor oladipo
p122
aVkawhi leonard
p123
aVisaiah thomas
p124
aVmyles turner
p125
aVlamar odom
p126
aVjeremy lin
p127
aVal jefferson
p128
aVnicolas batum
p129
aVchris paul
p130
aVmario hezonja
p131
aVaaron gordon
p132
aVfrank kaminsky
p133
aVpaul pierce
p134
aVkyle lowry
p135
aVcarmelo anthony
p136
aVwillie cauley-stein
p137
aVanthony davis
p138
aVkobe bryant
p139
aVjamal crawford
p140
aVsam dekker
p141
aVmaya moore
p142
aVkarl anthony towns
p143
aVmichael jordan
p144
aVadam silver
p145
aVjamal crawford
p146
aVmaya moore
p147
aVkevin durant
p148
aVlamarcus aldridge
p149
aVmaya moore
p150
aVrussell westbrook
p151
aVkevin durant
p152
aVrudy gay
p153
aVkyle lowry
p154
aVstephen curry
p155
aVscottie wilbekin
p156
aVrussell westbrook
p157
aVdavid lee
p158
aVavery bradley
p159
aVdavid lee
p160
aVterry rozier
p161
aVavery bradley
p162
aVtompkins
p163
aVsergio rodriguez
p164
aVkevin durant
p165
aVrichard jefferson
p166
aVpaul george
p167
aVlebron james
p168
aVharry gallatin
p169
aVkareem abdul-jabbar
p170
aVmycroft holmes
p171
aVd'angelo russell
p172
aVjames harden
p173
aVjames
p174
aVmaya moore
p175
aVfowles
p176
aVolimpia milano
p177
aVstephen curry
p178
aVanthony davis
p179
aVjames harden
p180
aVkobe bryant
p181
aVgerald green
p182
aVkobe bryant
p183
aVkobe bryant
p184
aVpaul george
p185
aVderrick
p186
aVdeandre jordan
p187
aVdavid west
p188
aVmikhail prokhorov
p189
aVjason kidd
p190
aVandrew wiggins
p191
aVkarl anthony towns
p192
aVkevin durant
p193
aVty lawson
p194
aVbosh
p195
aVderon williams
p196
aVanthony davis
p197
aVdamian lillard
p198
aVsteve kerr
p199
aVspike lee
p200
aVjames harden
p201
aVlamarcus aldridge
p202
aVvince carter
p203
aVscottie pippen
p204
aVscottie pippen
p205
aVtracy mcgrady
p206
aVjason richardson
p207
aVshawn kemp
p208
aVjason richardson
p209
aVblake griffin
p210
aVsam presti
p211
aVkevin durant
p212
aVspike lee
p213
aVstephen curry
p214
aVbrittney griner
p215
aVjames
p216
aVjohn wall
p217
aVbrittney griner
p218
aVphil jackson
p219
aVjackson
p220
aVmoses malone
p221
aVelena delle donne
p222
aVelena delle donne
p223
aVanthony davis
p224
aVmagic johnson
p225
aVmoses malone
p226
aVjared greenberg
p227
aVal
p228
aVcraig sager
p229
aVjared greenberg
p230
aVjae crowder
p231
aVstephen curry
p232
aVmagic johnson
p233
aVpaul george
p234
aVstephen curry
p235
aVjabari parker
p236
aVbradley beal
p237
aVkenny smith
p238
aVstephen curry
p239
aVisiah thomas
p240
aVstephen curry
p241
aVbradley beal
p242
aVkobe bryant
p243
aVjabari parker
p244
aVsekou smith
p245
aVisiah
p246
aVstephen curry
p247
aVjeff teague
p248
aVstephen curry
p249
aVrodney stuckey
p250
aVjimmy butler
p251
aVandre drummond
p252
aVkenneth faried
p253
aVkobe
p254
aVkenneth faried
p255
aVjulius randle
p256
aVfaried
p257
aVkenneth faried
p258
aVandre drummond
p259
aVjulius randle
p260
aVjeff teague
p261
aVjeff teague
p262
aVbazemore
p263
aVwade
p264
aVwhiteside
p265
aVwade
p266
aVwade
p267
aVlebron james
p268
aVjames harden
p269
aVlebron james
p270
aVkobe bryant
p271
aVlebron james
p272
aVjames
p273
aVty lawson
p274
aVtim duncan
p275
aVjohn stockton
p276
aVduncan
p277
aVstephen curry
p278
aVstephen curry
p279
aVfestus ezeli
p280
aVjames harden
p281
aVtim duncan
p282
aVjohn stockton
p283
aVduncan
p284
aVjames harden
p285
aVstephen curry
p286
aVkevin durant
p287
aVjames harden
p288
aVlebron james
p289
aVjames
p290
aVstephen curry
p291
aVhassan whiteside
p292
aVstephen curry
p293
aVjabari parker
p294
aVbosh
p295
aVtim duncan
p296
aVkevin durant
p297
aVstephen curry
p298
aVcurry
p299
aVhassan whiteside
p300
aVdwane casey
p301
aVvalanciunas
p302
aVdemar derozan
p303
aVgreg monroe
p304
aVlamarcus aldridge
p305
aValdridge
p306
aVblake griffin
p307
aVstephen curry
p308
aVeric bledsoe
p309
aVbrandon knight
p310
aVjamal crawford
p311
aVsteph curry
p312
aVcarmelo anthony
p313
aVblake griffin
p314
aVdeandre jordan
p315
aVanthony
p316
aVstephen curry
p317
aVdemarcus cousins
p318
aVblake griffin
p319
aVstephen curry
p320
aVcraig sager
p321
aVstephen curry
p322
aVjrue holidayholiday
p323
aVcraig sager
p324
aValvin gentry
p325
aVcraig sager
p326
aVkristen ledlow
p327
aVorlando magic
p328
aVkevin durant
p329
aVrussell westbrook
p330
aVcurry
p331
aVsteve nash
p332
aVsteve nash
p333
aVstephen curry
p334
aVrussell westbrook
p335
aVkobe bryant
p336
aVshaquille o ' neal
p337
aVandre drummond
p338
aVlebron james
p339
aVkristaps porzingis
p340
aVsteve nash
p341
aVsteve nash
p342
aVjeff teague
p343
aVal horford
p344
aVmarc gasol
p345
aVmarc gasol
p346
aVblake griffin
p347
aVmarc gasol
p348
aVc.j
p349
aVmccollum
p350
aVanthony davis
p351
aVjames
p352
aVricky rubio
p353
aVkobe bryant
p354
aVruss
p355
aVbilly donovan
p356
aVrussell westbrook
p357
aVkobe bryant
p358
aVkarl anthony towns
p359
aVd'angelo russell
p360
aVjustise winslow
p361
aVlamarcus aldridge
p362
aVkevin durant
p363
aVrick kamla
p364
aVkobe bryant
p365
aVdwight howard
p366
aVjabari parker kobe bryant
p367
aVbarack obama
p368
aVdavid aldridge
p369
aVstephen curry
p370
aVandre drummond
p371
aVderrick rose & lebron james
p372
aVlou williams
p373
aVrick carlisle
p374
aVrick kamla
p375
aVflip saunders
p376
aVmonta ellis
p377
aVflip saunders
p378
aVchandler parsons
p379
aVlang whitaker
p380
aVjahlil okafor
p381
aVrick
p382
aVdevin booker
p383
aVrip hamilton
p384
aVadam silver
p385
aVgregg popovich
p386
aVtyson chandler
p387
aVeric bledsoe
p388
aVtobias harris
p389
aVvictor oladipo
p390
aVkunal nayyar
p391
aVricky rubio
p392
aVkobe bryant
p393
aVgrant hill
p394
aVisiah thomas
p395
aVisiah thomas
p396
aVkevin garnett
p397
aVandrew wiggins
p398
aVryan kelly
p399
aVryan kelly
p400
aVkevin love
p401
aVkunal nayyar
p402
aVkunal nayyar
p403
aVben schwartz venice beach venice beach venice beach nba tv
p404
aVmelo
p405
aVrick fox
p406
aVsekou smith
p407
aVlang whitaker
p408
aVbyron scott
p409
aVdavid lee
p410
aVmonta ellis
p411
aVpaul george
p412
aVpaul millsap
p413
aVjabari parker
p414
aVgreg monroe
p415
aVgiannis antetokounmpo
p416
aVlarry
p417
aVphife dawg
p418
aVbradley beal
p419
aVphife dawg
p420
aVanthony davis
p421
aVrick fox
p422
aVsekou smith
p423
aVlang whitaker
p424
aVwesley matthews
p425
aVrussell westbrook
p426
aVkevin durant
p427
aVthomas
p428
aVwilt chamberlain
p429
aVbill russell
p430
aVshaq
p431
aVisiah thomas
p432
aVjohn wall
p433
aVbradley beal
p434
aVdwayne wade
p435
aVchris bosh
p436
aVpaul pierce
p437
aVdoc rivers
p438
aVisiah thomas
p439
aVjohn schuhmann
p440
aVlamarcus aldridge
p441
aVwesley matthews
p442
aVderon williams
p443
aVjeremy lin
p444
aVanthony davis
p445
aVlawson
p446
aVkobe bryant
p447
aVd'angelo russell
p448
aVsteve nash
p449
aValdridge
p450
aVtony parker
p451
aVpaul millsap
p452
aVjames
p453
aVpaul george
p454
aVgrant
p455
aVvince cellini
p456
aVmike fratello
p457
aVdavid griffin
p458
aVjames
p459
aVkobe bryant
p460
aVshumpert
p461
aVanthony davis
p462
aVpaul millsap
p463
aVjames
p464
aVjames
p465
aVtristan thompson
p466
aVsteve kerr
p467
aVscottie pippen-
p468
aVscottie pippen
p469
aVscottie pippen
p470
aVscottie pippen
p471
aVscottie pippen
p472
aVscottie pippen
p473
aVrussell westbrook
p474
aVjason richardson
p475
aVjason richardson
p476
aVscottie pippen
p477
aVjason richardson
p478
aVscottie pippen
p479
aVpippen
p480
aVlamarcus aldridge
p481
aVstephen curry
p482
aVralph sampson
p483
aVsam presti
p484
aVkevin durant
p485
aVbrandon jennings
p486
aVjohn salmons
p487
aVmichael jordan
p488
aVmichael jordan
p489
aVanthony bennett scottie pippen
p490
aVmichael jordan
p491
aVmichael jordan
p492
aVdirk nowitzki
p493
aVlebron james
p494
aVsteve nash
p495
aVcharles barkley
p496
aVcharles barkley
p497
aVcharles barkley
p498
aVtyreke evans
p499
aVtoni kukoc
p500
aVserge ibaka
p501
aVrasheed wallace
p502
aVkobe bryant
p503
aVbilly donovan
p504
aVdwyane wade
p505
aVrasheed wallace
p506
aVphil jackson
p507
aVphil
p508
aVjames harden
p509
aVelena delle donne
p510
aVjason terry
p511
aVmike dunleavy jr
p512
aVdennis schroder
p513
aVmoses malone
p514
aVlarry brown
p515
aVmoses malone
p516
aVjimmy butler
p517
aVjimmy butler
p518
aVhakeem olajuwon
p519
aVmoses malone
p520
aVpaul george
p521
aVsteve aschburner
p522
aVmoses malone
p523
aVmoses malone
p524
aVmoses malone
p525
aVmoses malone
p526
aVdikembe mutombo
p527
aVjo jo white
p528
aVdikembe mutombo
p529
aVkarl anthony towns
p530
aVdavid aldridge
p531
aVfamer isiah thomas
p532
aVdikembe mutombo
p533
aVgary payton
p534
aVdavid aldridge
p535
aVdikembe mutombo
p536
aVty lawson
p537
aVshaun powell
p538
aVdikembe mutombo
p539
aVlisa leslie
p540
aVdikembe mutombo
p541
aVsam mitchell
p542
aVflip saunders
p543
aVsteve smith
p544
aVdikembe mutombo
p545
aVsekou smith
p546
aVlang whitaker
p547
aVjohn calipari
p548
aVdikembe mutombo
p549
aVben wallace
p550
aVbob lanier
p551
aVben wallace
p552
aVdikembe mutombo
p553
aVmichael jordan
p554
aVdan majerle
p555
aVsmith
p556
aVmichael jordan
p557
aVdikembe mutombo
p558
aVmutombo
p559
aVjohn thompson
p560
asVlocation
p561
(lp562
Voklahoma city thunder
p563
aVoklahoma city
p564
aVoklahoma city thunder
p565
aVatlanta
p566
aVhouston
p567
aVorlando
p568
aVsan antonio
p569
aVphiladelphia
p570
aVwashington
p571
aVphoenix
p572
aVoklahoma city thunder
p573
aVmiami
p574
aVphoenix
p575
aVdallas
p576
aVportland
p577
aVoklahoma city thunder
p578
aVmiami
p579
aVsan antonio spursoklahoma city thunder
p580
aVminnesota
p581
aVminnesota timberwolvesla lakers
p582
aVoklahoma city thunder
p583
aVatlanta
p584
aVpau gasol
p585
aVchicago
p586
aVchina
p587
aVmontreal
p588
aVchina
p589
aVusa basketball
p590
aVphoenix
p591
aVminnesota
p592
aVsacramento
p593
aVchicago
p594
aVmiami
p595
aVoklahoma city thunder
p596
aVportland
p597
aVottawa
p598
aVrio de janeiro
p599
aVoklahoma city thunder
p600
aVsan antonio spurs
p601
aVphiladelphia
p602
aVhouston
p603
aVchina
p604
aVshanghai
p605
aVbrazil
p606
aVrio
p607
aVrio de janeiro
p608
aVbrazil
p609
aVflamengo
p610
aVorlando magic
p611
aVwest
p612
aVorlando
p613
aVrio
p614
aVmuggsy bogues
p615
aVrio de janeiro
p616
aVrio
p617
aVwest
p618
aVshanghai
p619
aVchina
p620
aVshenzhen
p621
aVshanghai
p622
aVshanghai
p623
aVchina
p624
aVindiana
p625
aVshanghai
p626
aVshanghai
p627
aVsan diego
p628
aVshenzhen
p629
aVchina
p630
aVshenzhen
p631
aVchina
p632
aVshenzhen
p633
aVchina
p634
aVshenzhen
p635
aVminnesota
p636
aVboston
p637
aVphiladelphia
p638
aVoklahoma city
p639
aVnew york
p640
aVmadrid
p641
aVmadrid
p642
aVmadrid
p643
aVmadrid
p644
aVspain
p645
aVoklahoma city thunder
p646
aVindiana
p647
aVl.a.
p648
aVshanghai
p649
aVmilan
p650
aVcincinnati
p651
aVindiana
p652
aVindiana
p653
aVindiana
p654
aVmilan
p655
aVitaly
p656
aVoklahoma city thunder
p657
aVmilan
p658
aVmilan
p659
aVmiami
p660
aVutah jazz
p661
aVhawaii
p662
aVindiana
p663
aVsanta barbara
p664
aVmemphis
p665
aVchina
p666
aVchina
p667
aVminneapolis
p668
aVoklahoma city
p669
aVorlando magic
p670
aVportland
p671
aVcompton
p672
aVorlando magic
p673
aVoklahoma city
p674
aVoklahoma city thunder
p675
aVkawhi leonard
p676
aVspain
p677
aVlithuania
p678
aVspain
p679
aVlithuania
p680
aVspain
p681
aVlithuania
p682
aVlithuania
p683
aVserbia
p684
aVspain
p685
aVserbia
p686
aVlithuania
p687
aVphoenix
p688
aVphoenix
p689
aVspain
p690
aVfrance
p691
aVspain
p692
aVspain
p693
aVfrance
p694
aVserbia
p695
aVlithuania
p696
aVchicago
p697
aVspain
p698
aVfrance
p699
aVchicago
p700
aVoklahoma city
p701
aVmiami
p702
aVlos angeles
p703
aVmiami
p704
aVmiami
p705
aVoklahoma city thunder
p706
aVmiami
p707
aVla
p708
aVelias
p709
aVoklahoma city thunder
p710
aVoklahoma city
p711
aVoklahoma city
p712
aVbay area
p713
aVhouston
p714
aVcharlotte
p715
aVwashington
p716
aVwashington
p717
aVnew orleans
p718
aVnew orleans
p719
aVoklahoma city thunder
p720
aVhouston
p721
aVorlando magic
p722
aVoklahoma city thunder
p723
aVmiami
p724
aVoklahoma city thunder
p725
aVoklahoma city
p726
aVatlanta
p727
aVoklahoma city thunder
p728
aVphilly
p729
aVphiladelphia
p730
aVcalifornia
p731
aVhamilton
p732
aVwest coast
p733
aVlos angeles
p734
aVorlando magic
p735
aVoklahoma city
p736
aVsan antonio spurs
p737
aVportland
p738
aVportland
p739
aVphiladelphia
p740
aVbrazil
p741
aVflamengo
p742
aVrio
p743
aVlondon
p744
aVchina
p745
aVmiami
p746
aVchina
p747
aVchicago
p748
aVlexington
p749
aVcleveland
p750
aVchina
p751
aVspain
p752
aVphiladelphia
p753
aVoklahoma city thunder
p754
aVcleveland
p755
aVrip city
p756
aVboston
p757
aVoklahoma city
p758
aVorlando magic
p759
aVusa
p760
aVpau gasol
p761
aVspain
p762
aVeuropean
p763
aVoklahoma city thunder
p764
aVoklahoma city thunder
p765
aVinstagram
p766
aVspringfield
p767
asVorganization
p768
(lp769
Vchicago bulls
p770
aVchicago bulls
p771
aVsacramento kings
p772
aVkings
p773
aVnba
p774
aVnba
p775
aVtnt
p776
aVbulls & memphis
p777
aVbig board
p778
aVgolden state warriors
p779
aVl.a. clippers
p780
aVtoronto raptors & golden state warriors
p781
aVwashington wizards
p782
aVnba
p783
aVl.a. clippers
p784
aVcleveland cavaliers
p785
aVnew york knicks
p786
aVtoronto raptors
p787
aVwashington wizards
p788
aVl.a. clippers
p789
aVgolden state warriors
p790
aVnba
p791
aVespn
p792
aVnba
p793
aVespn
p794
aVnba
p795
aVespn
p796
aVtoronto raptors
p797
aVtoronto raptors
p798
aVdallas mavericks
p799
aVnba
p800
aVnba
p801
aVnba
p802
aV& denver nuggetsla lakers
p803
aVgolden state warriors
p804
aVnba
p805
aVsan antonio spurs
p806
aVnba
p807
aVdetroit pistons
p808
aVgolden state warriors
p809
aVnba
p810
aVnba
p811
aVnba
p812
aVnba
p813
aVnba tv
p814
aVsan antonio spurs
p815
aVnba
p816
aVsan antonio spurs
p817
aVnba
p818
aVl.a. clippers
p819
aVnba
p820
aVnew york knicks
p821
aVphoenix suns
p822
aVgolden state warriors
p823
aVnba
p824
aVnba
p825
aVnba
p826
aVnba development league
p827
aVnba tv
p828
aVminnesota timberwolves
p829
aVphoenix suns
p830
aVnba
p831
aVnew york knicks
p832
aVcleveland cavaliers
p833
aVgolden state warriors
p834
aVhouston rockets
p835
aVespn
p836
aVphoenix suns
p837
aVnba
p838
aVnba
p839
aVespn
p840
aVphoenix suns
p841
aVsuns
p842
aVphoenix suns
p843
aVl.a. clippers
p844
aVmemphis grizzlies
p845
aVatlanta hawks & l.a. clippers
p846
aVnew york knicks
p847
aVnba
p848
aVminnesota timberwolves
p849
aVnba
p850
aVatlanta hawksnew york knicks
p851
aVnba
p852
aVcleveland cavaliers
p853
aVnba
p854
aVminnesota timberwolves
p855
aVla lakers
p856
aVkobe & kevin
p857
aVsan antonio spurs
p858
aVchicago bulls
p859
aVbrooklyn nets
p860
aVla lakers
p861
aVnba
p862
aVespn
p863
aVnba
p864
aVgolden state warriors
p865
aVnba
p866
aVespn
p867
aVnba
p868
aVespn
p869
aVnba
p870
aVsan antonio spurs
p871
aVnba
p872
aVespn
p873
aVgolden state warriors
p874
aVdetroit pistons
p875
aVchicago bulls & golden state warriors
p876
aVgolden state warriors
p877
aVgolden state warriors
p878
aVnba
p879
aVdetroit pistons
p880
aVchicago bulls
p881
aV& nikola mirotic
p882
aVchicago bulls
p883
aVcleveland cavaliers
p884
aVnba
p885
aVtnt
p886
aVchicago bulls
p887
aVcleveland cavaliers
p888
aVnba
p889
aVnba
p890
aVnba
p891
aVcleveland cavalierschicago bulls & new orleans
p892
aVnba
p893
aVnba
p894
aVcleveland cavaliers v. chicago bulls
p895
aVnba
p896
aVnew orleans pelicans v. golden state warriors
p897
aVtnt
p898
aVnba
p899
aVnba
p900
aVgolden state warriors
p901
aVnba
p902
aVl.a. clippers training camp
p903
aVnba
p904
aVnba
p905
aVnba
p906
aVnba
p907
aVnba
p908
aVgm
p909
aVnba
p910
aVnba
p911
aVtoronto raptors
p912
aVl.a. clippers training camp
p913
aVgolden state warriors
p914
aVnba
p915
aVindiana pacers
p916
aVnba
p917
aVfacebook frame nba
p918
aVnba
p919
aVblake griffin & deandre jordan
p920
aVnba
p921
aVnba
p922
aVl.a. clippers
p923
aVnba
p924
aVnba
p925
aVnba
p926
aVminnesota timberwolves
p927
aVnba
p928
aVnba
p929
aVtnt
p930
aVnew orleans pelicans
p931
aVgolden state warriors
p932
aVnba
p933
aVnba
p934
aVnba
p935
aVnba
p936
aVnba
p937
aVnba
p938
aVnba tv
p939
aVl.a. clippers
p940
aVnba
p941
aVnba
p942
aVnba
p943
aVnba
p944
aVnba
p945
aVla lakers
p946
aVminnesota timberwolves & toronto raptors
p947
aVnba
p948
aVnba
p949
aVgolden state warriors
p950
aVnba
p951
aVnba
p952
aVnba
p953
aVnba
p954
aVnba
p955
aVyahoo
p956
aVnba
p957
aVnba
p958
aVnba
p959
aVgolden state warriors
p960
aVla lakers
p961
aVnbaglobalgames dwyane wade & trevor ariza
p962
aVla lakers
p963
aVcharlotte hornets & l.a. clippers
p964
aVflamengo
p965
aVnba
p966
aVsacramento kings
p967
aVnba
p968
aVnba brasil
p969
aVnba
p970
aVnbahangtime road trip crew
p971
aVgolden state warriors
p972
aVla lakers & l.a. clippers
p973
aVnba
p974
aVnba
p975
aVwnba
p976
aVnba
p977
aVnba
p978
aVnba
p979
aVwnba
p980
aVtbt
p981
aVorlando magic
p982
aVnbahangtime road trip
p983
aVgolden state warriors
p984
aVla lakers & l.a. clippers
p985
aVnba
p986
aVsan antonio spurs amir johnson
p987
aVboston celtics
p988
aVindiana pacers
p989
aVnba
p990
aVwnba
p991
aVnba
p992
aVwnba
p993
aVnba family
p994
aVwnba
p995
aVred auerbach & the boston celtics
p996
aVnba
p997
aVwnba
p998
aVnba
p999
aVwnba
p1000
aVcharlotte hornets
p1001
aVl.a. clippers
p1002
aVcharlotte hornets
p1003
aVl.a. clippers
p1004
aVnba
p1005
aVl.a. clippers
p1006
aVcharlotte hornets
p1007
aVnba
p1008
aVcharlotte hornets
p1009
aVnba
p1010
aVnba
p1011
aVnba
p1012
aVl.a. clippers
p1013
aVtoronto raptors
p1014
aVnba
p1015
aVnba italia
p1016
aVnba
p1017
aVl.a. clippers
p1018
aVsacramento kings
p1019
aVla lakers
p1020
aVnba
p1021
aVroma
p1022
aVl.a. clippers
p1023
aVhouston rockets
p1024
aVnba
p1025
aVwnba
p1026
aVnba
p1027
aVwnba
p1028
aVnba
p1029
aVl.a. clippers
p1030
aVminnesota lynx
p1031
aVwnba
p1032
aVnba
p1033
aVwnba
p1034
aVnba
p1035
aVwnba
p1036
aVcharlotte hornets
p1037
aVl.a. clippers
p1038
aVnba
p1039
aVnba
p1040
aVminnesota timberwolves
p1041
aVnba
p1042
aVl.a. clippers & charlotte hornets
p1043
aVnba
p1044
aVnbaglobalgames press conference w nba
p1045
aVsteve ballmer & michael jordan
p1046
aVnba
p1047
aVnba
p1048
aVla clippers & charlotte hornets
p1049
aVnba
p1050
aVl.a. clippers
p1051
aVl.a. clippers
p1052
aVminnesota lynx
p1053
aVminnesota lynx
p1054
aVnba
p1055
aVnba
p1056
aVwnba
p1057
aVwnba
p1058
aVsacramento kings
p1059
aVbrooklyn nets
p1060
aVboston celtics
p1061
aVtoronto raptors
p1062
aVstockton & malone
p1063
aVutah jazz
p1064
aVboston celtics
p1065
aVnba
p1066
aVboston celtics
p1067
aVreal madrid baloncesto
p1068
aVnba
p1069
aVboston celtics
p1070
aVreal madrid baloncesto
p1071
aVnba
p1072
aVnba
p1073
aVnba
p1074
aVboston celtics
p1075
aVreal madrid baloncesto
p1076
aVl.a. clippers
p1077
aVcharlotte hornets
p1078
aVamerican airlines
p1079
aVceltics
p1080
aVnew york knicks
p1081
aVknicks
p1082
aVnba
p1083
aVl.a. clippers
p1084
aVatlanta hawks
p1085
aVcleveland cavaliers
p1086
aVsacramento kings
p1087
aVphoenix suns
p1088
aVnba
p1089
aVnba
p1090
aVtnt
p1091
aVnba
p1092
aVla lakers
p1093
aVhouston rockets
p1094
aVminnesota lynx
p1095
aVminnesota lynx
p1096
aVwnba
p1097
aVnba
p1098
aVboston celtics
p1099
aVnba
p1100
aVboston celtics
p1101
aVlake como
p1102
aVnba italia
p1103
aVnba 2k launch party
p1104
aVcleveland cavaliers
p1105
aVnba
p1106
aVnba
p1107
aVboston celtics
p1108
aVnba tv in la lakers
p1109
aVla lakers
p1110
aVnba
p1111
aVnba
p1112
aVwnba
p1113
aVnba
p1114
aVwnba
p1115
aVnba
p1116
aVwnba
p1117
aVindiana pacers
p1118
aVchicago bulls
p1119
aVmemphis grizzlies
p1120
aVnba
p1121
aVnba
p1122
aVfiba
p1123
aVnba
p1124
aVfiba
p1125
aVnba
p1126
aVfiba
p1127
aVnba
p1128
aVwnba
p1129
aVnba
p1130
aVnba
p1131
aVl.a. clippers
p1132
aVnba
p1133
aVnba
p1134
aVnba
p1135
aVmemphis grizzlies
p1136
aVnba
p1137
aVnba
p1138
aVdenver nuggets & l.a. clippers
p1139
aVsan antonio spurs
p1140
aVl.a. clippers
p1141
aVnba
p1142
aVmilwaukee bucks
p1143
aVuniversity of wisconsin
p1144
aVbrooklyn nets
p1145
aVcleveland cavaliers
p1146
aVnba
p1147
aVnba
p1148
aVnba
p1149
aVminnesota timberwolves
p1150
aVgolden state warriors
p1151
aVnba
p1152
aVnba
p1153
aVnba
p1154
aVmilwaukee bucks
p1155
aVnba
p1156
aVwnba
p1157
aVminnesota timberwolves
p1158
aVatlanta hawks
p1159
aVnba
p1160
aVgolden state warriors
p1161
aVminnesota timberwolves training camp
p1162
aVnba tv & nba.com
p1163
aVnba
p1164
aVnba tv & nba.com
p1165
aVminnesota timberwolves
p1166
aVnba
p1167
aVhouston rockets
p1168
aVnba
p1169
aVsacramento kings
p1170
aVnba
p1171
aVnba
p1172
aVnba
p1173
aVnba
p1174
aVnba coaches association
p1175
aVnba
p1176
aVnba
p1177
aVchicago bulls
p1178
aVnba
p1179
aVnba
p1180
aVhouston rockets
p1181
aVnba
p1182
aVnba
p1183
aVnba tv & nba.com
p1184
aVnba
p1185
aVnba
p1186
aVnba
p1187
aVwnba
p1188
aVnba
p1189
aVnba
p1190
aVl.a. clippers
p1191
aVgolden state warriors coach &
p1192
aVnba
p1193
aVwnba
p1194
aVnba
p1195
aVboston celtics
p1196
aVnba
p1197
aVnba
p1198
aVsan antonio spurs
p1199
aVnba
p1200
aVcharlotte hornets
p1201
aVnba
p1202
aVnba
p1203
aVl.a. clippers
p1204
aVnba
p1205
aVmetta world peace
p1206
aVla lakers
p1207
aVnba
p1208
aVwnba
p1209
aVnba
p1210
aVnba
p1211
aVnba brasil
p1212
aVnba
p1213
aVnba
p1214
aVwnba
p1215
aVnba
p1216
aVwnba
p1217
aVsan antonio spurs
p1218
aVnba
p1219
aVfiba
p1220
aVpau gasol
p1221
aVcleveland cavaliers
p1222
aVnba
p1223
aVfiba
p1224
aVfiba
p1225
aVpau gasol
p1226
aVfiba
p1227
aVwashington mystics & new york liberty
p1228
aVfiba
p1229
aVnba
p1230
aVfiba
p1231
aVnba
p1232
aVpau gasol
p1233
aVfiba
p1234
aVpau gasol
p1235
aVfiba
p1236
aVnba
p1237
aVnba.comleaguepass nba
p1238
aVfiba
p1239
aVnba
p1240
aVfiba
p1241
aVnba
p1242
aVfiba
p1243
aVsamsung
p1244
aVfiba
p1245
aVnba
p1246
aVfiba
p1247
aVnba
p1248
aVnba
p1249
aVfiba
p1250
aVnba
p1251
aVfiba
p1252
aVfiba
p1253
aVnba
p1254
aVnba
p1255
aVnba
p1256
aVnba
p1257
aVwnba
p1258
aVnba
p1259
aVnba tv
p1260
aVnba
p1261
aVnba
p1262
aVindiana pacers
p1263
aVboston celtics
p1264
aVcleveland cavaliers
p1265
aVknicks
p1266
aVgolden state warriors
p1267
aVl.a. clippers
p1268
aVtoronto raptors
p1269
aVwashington wizards
p1270
aVatlanta hawks
p1271
aVnba
p1272
aVindiana pacers
p1273
aVdetroit pistons
p1274
aVchicago bulls
p1275
aVcharlotte hornets
p1276
aVtoronto raptors
p1277
aVdenver nuggets
p1278
aVla lakers
p1279
aVlakers
p1280
aVdenver nuggets
p1281
aVla lakers
p1282
aVla lakers
p1283
aVdenver nuggets
p1284
aVla lakers
p1285
aVatlanta hawks
p1286
aVhawks
p1287
aVboston celtics
p1288
aVatlanta hawks
p1289
aVmiami heat
p1290
aVthe hawks
p1291
aVdenver nuggets
p1292
aVla lakers
p1293
aVnba
p1294
aVatlanta hawks
p1295
aVmiami heat
p1296
aVboston celtics first
p1297
aVatlanta hawks
p1298
aVmiami heat
p1299
aVmiami heat
p1300
aVboston celtics
p1301
aVnba best
p1302
aVatlanta hawks
p1303
aVmiami heat
p1304
aVdenver nuggets
p1305
aVla lakers
p1306
aVhouston rockets
p1307
aVnba
p1308
aVmiami heat # nbabest1 2008 boston celtics
p1309
aVnba
p1310
aVatlanta hawks
p1311
aVdenver nuggets
p1312
aVla lakers
p1313
aVnba
p1314
aVgolden state warriors
p1315
aVnba
p1316
aVnba
p1317
aVsan antonio spurs
p1318
aVgolden state warriors
p1319
aVmemphis grizzlies
p1320
aVgolden state warriors
p1321
aVmemphis grizzlies
p1322
aVdraymond green
p1323
aVhouston rockets
p1324
aVsan antonio spurs
p1325
aVhouston rockets
p1326
aVnba
p1327
aVhouston rockets
p1328
aVnba
p1329
aVhouston rockets
p1330
aVnba
p1331
aVhouston rockets
p1332
aVmemphis grizzlies
p1333
aVgolden state warriors
p1334
aVea sports nba
p1335
aVmilwaukee bucks
p1336
aVnba
p1337
aVatlanta hawks
p1338
aVmiami heat
p1339
aVdenver nuggets
p1340
aVla lakers
p1341
aVnba
p1342
aVnba
p1343
aVmanu ginobili & tony parker
p1344
aVnba
p1345
aVhouston rockets
p1346
aVnba
p1347
aVelias sports bureau
p1348
aVmiami heat
p1349
aVhouston rockets
p1350
aVtoronto raptors
p1351
aVtoronto raptors
p1352
aVmilwaukee bucks
p1353
aVtoronto raptors
p1354
aVmilwaukee bucks
p1355
aVsan antonio spurs
p1356
aVboston celtics
p1357
aVatlanta hawks
p1358
aVcharlotte hornets
p1359
aVl.a. clippers
p1360
aVkings
p1361
aVelias sports
p1362
aVphoenix suns
p1363
aVgolden state warriors
p1364
aVnew york knicks
p1365
aVl.a. clippers
p1366
aVsacramento kings
p1367
aVsacramento kings
p1368
aVl.a. clippers
p1369
aVgolden state warriors
p1370
aVgolden state warriors
p1371
aVnew orleans pelicans
p1372
aVnba
p1373
aVgolden state warriors
p1374
aVgolden state warriors
p1375
aVnba
p1376
aVnba
p1377
aVhouston rockets
p1378
aVphoenix suns
p1379
aVdetroit pistons
p1380
aVchicago bulls
p1381
aVphoenix suns
p1382
aVgolden state warriors
p1383
aVhouston rockets
p1384
aVkevin durant & 48
p1385
aVjordan & pippen
p1386
aVnba
p1387
aVatlanta hawks
p1388
aVcharlotte hornets
p1389
aVhawks
p1390
aVdetroit pistons
p1391
aVnba
p1392
aVcleveland cavaliers
p1393
aVnba
p1394
aVnba
p1395
aVphoenix suns
p1396
aVphoenix suns
p1397
aVclippers
p1398
aVmavericks
p1399
aVl.a. clippers
p1400
aVatlanta hawks
p1401
aVnew york knicks
p1402
aVmemphis grizzlies
p1403
aVindiana pacers
p1404
aVmemphis grizzlies
p1405
aVindiana pacers
p1406
aVl.a. clippers
p1407
aVmemphis grizzlies
p1408
aVmemphis grizzlies
p1409
aVindiana pacers
p1410
aVnba
p1411
aVportland trail blazers
p1412
aVtbt
p1413
aVnba
p1414
aVnba
p1415
aVdetroit pistons
p1416
aVnba
p1417
aVnba
p1418
aVminnesota timberwolves
p1419
aVla lakers
p1420
aVnba
p1421
aVnba
p1422
aVla lakers
p1423
aVnba
p1424
aVsan antonio spurs
p1425
aVsan antonio spurs
p1426
aVgolden state warriors
p1427
aVla lakers
p1428
aVnba
p1429
aVchicago bulls
p1430
aVnba
p1431
aVgolden state warriors
p1432
aVgolden state warriors
p1433
aVdetroit pistons
p1434
aVdetroit pistons
p1435
aVatlanta hawks
p1436
aVdetroit pistons
p1437
aVatlanta hawks
p1438
aVnba
p1439
aVnba
p1440
aVosu
p1441
aVdallas mavericks head coach
p1442
aVnba
p1443
aVnba
p1444
aVnba
p1445
aVnba
p1446
aVnba
p1447
aVgolden state warriors
p1448
aVnba
p1449
aVgolden state warriors
p1450
aVnba
p1451
aVnba
p1452
aVl.a. clippers
p1453
aVnba
p1454
aVnba tv twitter
p1455
aVdetroit pistons
p1456
aVlang & sekou
p1457
aVisiah & jared
p1458
aVnba
p1459
aVnba league
p1460
aVspurs
p1461
aVusa basketball men 's national team
p1462
aVphoenix suns
p1463
aVcharlotte hornets
p1464
aVnba
p1465
aVnba
p1466
aVtbt
p1467
aVl.a. clippers
p1468
aVcleveland cavaliers & tristan thompson
p1469
aVdenver nuggets
p1470
aVnba
p1471
aVminnesota timberwolves
p1472
aVnba gm
p1473
aVnba
p1474
aVnba
p1475
aVportland trail blazers
p1476
aVla lakers
p1477
aVnba
p1478
aVdallas mavericks
p1479
aVcleveland cavaliers
p1480
aVnba
p1481
aVmemphis grizzlies
p1482
aVnba
p1483
aVnba tv
p1484
aVnba tv
p1485
aVnba tv
p1486
aVnba tv
p1487
aVutah jazz
p1488
aVcleveland cavaliers
p1489
aVtoronto raptors
p1490
aVnba
p1491
aVnbatv
p1492
aVbrooklyn nets
p1493
aVnba
p1494
aVla lakers
p1495
aVgolden state warriors expectations
p1496
aVbrooklyn nets
p1497
aVnba
p1498
aVorlando magic
p1499
aVnew york knicks
p1500
aVnba
p1501
aVnba
p1502
aVdraymond green & harrison barnes
p1503
aVnbahangtime la lakers
p1504
aVnba tv
p1505
aVboston celtics
p1506
aVnew york knicks
p1507
aVnba
p1508
aVboston celtics
p1509
aVindiana pacers
p1510
aVpacers
p1511
aVboston celtics
p1512
aVatlanta hawks
p1513
aVatlanta hawks
p1514
aVmilwaukee bucks
p1515
aVsacramento kings
p1516
aVnba
p1517
aVatlanta hawks
p1518
aVwashington wizards
p1519
aVnba
p1520
aVnba
p1521
aVsan antonio spurs
p1522
aVatlanta hawks
p1523
aVatlanta hawks
p1524
aVnba
p1525
aVnba
p1526
aVdream team
p1527
aVcharlotte hornets & l.a. clippers
p1528
aVnba
p1529
aVshowtime # lakers
p1530
aVnba
p1531
aVdenver nuggets
p1532
aVgolden state warriors
p1533
aVnba
p1534
aVnba
p1535
aVnba
p1536
aVmilwaukee bucks
p1537
aVcleveland cavaliers
p1538
aVwashington wizards
p1539
aVnba
p1540
aVl.a. clippers
p1541
aVhouston rockets
p1542
aVnba
p1543
aVnew orleans pelicans
p1544
aVchicago bulls
p1545
aVsan antonio spurs
p1546
aVmavs
p1547
aVdallas mavericks
p1548
aVnba
p1549
aVcharlotte hornets
p1550
aVl.a. clippers
p1551
aVnba
p1552
aVhouston rockets
p1553
aVnba
p1554
aVlakers
p1555
aVnba
p1556
aVcleveland cavaliers
p1557
aVgolden state warriors
p1558
aVnba
p1559
aVsan antonio spurs
p1560
aVspurs
p1561
aVtoronto raptors
p1562
aVchicago bulls
p1563
aVbulls
p1564
aVl.a. clippers
p1565
aVcharlotte hornets
p1566
aVboston celtics
p1567
aVreal madrid
p1568
aVnba
p1569
aVatlanta hawks
p1570
aVcleveland cavaliers
p1571
aVgolden state warriors
p1572
aVnba
p1573
aVl.a. clippers
p1574
aVgolden state warriors
p1575
aVdetroit just
p1576
aVnba
p1577
aVsacramento kings
p1578
aVnba
p1579
aVnba
p1580
aVdenver nuggets & l.a. clippers
p1581
aVnba
p1582
aVmemphis grizzlies real training camp
p1583
aVmemphis grizzlies
p1584
aVcleveland cavaliers real training camp
p1585
aVnba
p1586
aVcleveland cavaliers real training camp
p1587
aVcavs
p1588
aVnba
p1589
aVmilwaukee bucks
p1590
aVnba
p1591
aVcleveland cavaliers
p1592
aVminnesota timberwolves
p1593
aVnba tv cavs
p1594
aVsan antonio spurs
p1595
aVatlanta hawks
p1596
aVcleveland cavaliers
p1597
aVgolden state warriors
p1598
aVchicago bulls
p1599
aVnba
p1600
aVnba
p1601
aVchicago bulls
p1602
aVnba
p1603
aVchicago bulls
p1604
aVnba
p1605
aVnba
p1606
aVmetta world peace
p1607
aVla lakers
p1608
aVchicago bulls
p1609
aVnba
p1610
aVnba
p1611
aVchicago bulls
p1612
aVnba
p1613
aVorlando magic
p1614
aVtbt
p1615
aVnba
p1616
aVnba
p1617
aVnba
p1618
aVnba
p1619
aVhouston rockets
p1620
aVnba
p1621
aVhouston rockets
p1622
aVnba
p1623
aVnba
p1624
aVhouston rockets
p1625
aVnba
p1626
aVhouston rockets
p1627
aVnba
p1628
aVhouston rockets
p1629
aVnba
p1630
aVhouston rockets
p1631
aVlos angeles lakers
p1632
aVnba
p1633
aVdetroit pistons
p1634
aVchicago bulls
p1635
aVboston celtics
p1636
aVnba
p1637
aVnba
p1638
aVnba tv
p1639
aVnba tv
p1640
aVnba
p1641
aVnba
p1642
aVnba tv
p1643
aVnba tv
p1644
aVchicago bulls
p1645
aVtimberwolves
p1646
aVchicago bulls
p1647
aVnba
p1648
aVnba tv
p1649
aVnba tv
p1650
aVnba tv
p1651
aVnba tv
p1652
aVchicago bulls
p1653
aVnba
p1654
aVnba tv
p1655
aVnba tv
p1656
aVnba
p1657
aVchicago bulls
p1658
aVnba
p1659
aVnba
p1660
aVmavericks
p1661
aVcleveland cavaliers
p1662
aVnba
p1663
aVphoenix suns
p1664
aVnba
p1665
aVphoenix suns
p1666
aVchicago bulls
p1667
aVnba
p1668
aVphoenix suns
p1669
aVnba
p1670
aVphoenix suns
p1671
aVsan antonio spurs
p1672
aVnba
p1673
aVphoenix suns
p1674
aVnba
p1675
aVnba
p1676
aVnew orleans pelicans
p1677
aVnew orleans pelicans
p1678
aVgreater miami chamber of commerce hall
p1679
aVpistons
p1680
aVnba
p1681
aVla lakers
p1682
aVcavs
p1683
aVceltics
p1684
aVhouston rockets
p1685
aVchicago bulls
p1686
aVatlanta hawks
p1687
aVsuns
p1688
aVnba
p1689
aVnba tv
p1690
aVnba
p1691
aVnba
p1692
aVchicago bulls
p1693
aVnba
p1694
aVindiana pacers
p1695
aVbrooklyn nets
p1696
aVnba
p1697
aVnba
p1698
aVnba
p1699
aVnba
p1700
aVnba
p1701
aVnba
p1702
aVutah jazz
p1703
aVnba
p1704
aVwnba
p1705
aVminnesota timberwolves
p1706
aVnba
p1707
aVdetroit pistons
p1708
aVdetroit pistons
p1709
aVcharlotte hornets
p1710
aVnba
p1711
aVcleveland cavaliers
p1712
as.