(dp0
Vproduct
p1
(lp2
VBLUE DALLAS
p3
aVNBA Capsules
p4
aVNBA
p5
aVDario Saric
p6
aVBulls bury Thunder
p7
aVNBA
p8
aVNBA
p9
aVNBA 2K
p10
aVNBA Detroit Pistons Artwork
p11
aVNBA Jam
p12
aV@Saint_Lions @NBL Goulding
p13
aVNBA
p14
aVNBA
p15
aVNBA
p16
aVNBA
p17
aVNBA
p18
aVNBA roundup
p19
aVNBA Crazy Bloopers
p20
aVEpic Fails
p21
aVnba 2k
p22
aVNBA
p23
aVNBA
p24
aVNBA
p25
aVNBA
p26
aVNBA Crazy Bloopers
p27
aVNBA
p28
aVNBA
p29
aVNBA
p30
aVNBA
p31
aVNBA
p32
aVNBA
p33
aV#JeremyLin Basketball 2012-13 Elite
p34
aVNBA
p35
aVNBA
p36
aVNBA
p37
aVNBA
p38
aVNBA
p39
aVNBA
p40
aVNBA
p41
aVNBA
p42
aVNBA Trade
p43
aVBowman Chrome
p44
aVNBA
p45
aVCurry
p46
aVThe NBA
p47
aVNba
p48
aVNBA Power
p49
aVXbox
p50
aVNBA
p51
aVBradley Beal
p52
aVSports Illustrated
p53
aVnba
p54
aVNBA
p55
aVNBA Jam
p56
aVNBA 2K14
p57
aVNBA
p58
aVNBA
p59
aVNBA
p60
aVNBA
p61
aVNBA
p62
aVNBA
p63
aVNBA
p64
aVNBA News
p65
aVNBA
p66
aVNBA
p67
aV-Robert De Niro
p68
aVNBA Street Homecourt
p69
aVNBA
p70
aVNBA Inside Drive 2002
p71
aVXbox
p72
aVNBA Trade
p73
aVNBA
p74
aVNBA
p75
aVNBA Inside Drive 2002
p76
aVXbox
p77
aVNBA
p78
aVNBA
p79
aVDALLAS #Mavericks LICENSED
p80
aVScouts Guide
p81
aVNBA
p82
aVNBA Jam
p83
aVNBA
p84
aV2012-13 Elite
p85
aVNBA
p86
aVNBA Locker Code
p87
aVNBA
p88
aVNBA News
p89
aVNBA Power
p90
aVNBA
p91
aVNBA
p92
aVMLB
p93
aVNBA
p94
aVNba
p95
aVNBA
p96
aVNBA
p97
aVKobe Bryant Jam Mashup
p98
aVNBA
p99
aVNBA
p100
aVNBA
p101
aVNBA
p102
aVNBA
p103
aVThe NBA
p104
aVNBA
p105
aVHoops Courtside
p106
aVNBA
p107
aVNBA
p108
aVHoops Courtside
p109
aV#NBA
p110
aVNBA 2k
p111
aVNBA
p112
aVNBA
p113
aVNBA
p114
aVGears of War : Ultimate Edition Bundle
p115
aVNBA 2k
p116
aVNba Ballers
p117
aVNBA Kicks
p118
aVNBA Jam
p119
aVNBA
p120
aVNBA
p121
aVNBA
p122
aVNBA
p123
aVNBA
p124
aVNBA
p125
aVBlack Ops 3
p126
aVNBA
p127
aVNBA
p128
aVNBA
p129
aVNBA
p130
aVPrinceton Chin
p131
aVReview of SportsClone Store
p132
aVNBA
p133
aVThe NBA
p134
aVSeattle surgeon
p135
aVNBA
p136
aVVintage Rose
p137
aVNBA
p138
aVThe NBA
p139
asVband
p140
(lp141
VLebron James 12-13
p142
aVAMA
p143
aVTimberwolves | Thu
p144
aVThe League
p145
aVThe Homie
p146
aVBlack Medium
p147
aVPackers
p148
aVThe Clippers
p149
aVNews
p150
aVHighlights
p151
aVThe League
p152
aVThunder
p153
aVJapan
p154
aVDamian Lillard
p155
aVThunder
p156
aVLAL
p157
aVThe League
p158
aVHuman
p159
aVRajon Rondo Black Electric
p160
aVRondo Black Electric
p161
aVNot Substance
p162
aVAudio
p163
aVKings
p164
aVAudio
p165
aVAudio
p166
aVRockets-Kings Preview
p167
aVNBA Khandwa
p168
aVHOUSE
p169
aVThunder
p170
aVSpurs and Bulls
p171
aVDomantas Sabonis Scouting
p172
aVThunder
p173
aVNBA Capsules
p174
aVThe League
p175
aVThe League
p176
aVThe League
p177
aVThe League
p178
aVThe League
p179
aVThunder
p180
aVPolpharma Starogard
p181
aVBulls bury Thunder
p182
aVlos Wolves
p183
aVWizards-Celtics Preview
p184
aVSIGNUP BONUS
p185
aVThe Black Mamba
p186
aV#TeamYe Griz
p187
asVmovie
p188
(lp189
V#nba Rose
p190
aVSleeved Jerseys
p191
aVShaqtin
p192
aVKostas
p193
aVNotable NBA Games
p194
aVthe league pass
p195
aVSteph Curry
p196
aVRose
p197
aVNBA Knits
p198
aVNBA Crazy Bloopers
p199
aVNBA Crazy Bloopers
p200
aVEpic Fails
p201
aVPANINI HOOPS
p202
aVEbook
p203
aVDig Sports
p204
aVSteph Curry
p205
aVBurnt Orange
p206
aVRose Gold
p207
aVMarvin The Martian
p208
aVNot Substance
p209
aVGood Xbox
p210
aVHinkie
p211
aVGood Xbox
p212
aV#NBA Dado Arnautovic
p213
aVTimberwolves Tickets
p214
aVZombie Apocalypse
p215
aVShaqtin
p216
aVBleacher Blue
p217
aVInside
p218
aVInside_the_NBA
p219
aVMagic Kidd
p220
aVXX-Large
p221
aVKlay #Thompson
p222
aVNBA Capsules
p223
aVEaster
p224
aVSLAM
p225
aVShaqtin
p226
aVGreen agenda
p227
aVRose
p228
aVRose and Butler
p229
aVDamian Lillard
p230
aVSkin Diamond
p231
asVcompany
p232
(lp233
VNBA
p234
aVIman Shumpert Records
p235
aVNBA
p236
aVNBA Kicks
p237
aVOndo NBA
p238
aVNFL
p239
aVNFL
p240
aVNFL
p241
aVNFL
p242
aVNFL
p243
aVNFL
p244
aVNBA
p245
aVESPN
p246
aVESPN
p247
aVNBA
p248
aVNBA
p249
aVBlack
p250
aV@YouTube
p251
aVNBA
p252
aVNBA
p253
aVCHI
p254
aVNBA
p255
aVNBA
p256
aVNBA
p257
aVNBA
p258
aVNBA
p259
aVNBA
p260
aVNBA
p261
aVNBA
p262
aVNBA
p263
aVNBA
p264
aVESPN
p265
aVNational
p266
aVNBA
p267
aVNBA
p268
aVNBA
p269
aV@YouTube
p270
aVNBA
p271
aVNBA
p272
aVNBA
p273
aVNBA
p274
aVNBA
p275
aVNBA
p276
aVNBA
p277
aVNBA
p278
aVNBA
p279
aVNBA
p280
aVNBA
p281
aVNBA
p282
aVNBA
p283
aVNBA
p284
aVNBA
p285
aVNBA
p286
aVNBA
p287
aVNBA
p288
aVNBA
p289
aVNBA
p290
aVNBA
p291
aVNBA
p292
aVNBA
p293
aVNBA
p294
aVNBA
p295
aVNBA
p296
aVNBA
p297
aVNBA
p298
aVNBA
p299
aVNBA
p300
aVNBA
p301
aVNBA
p302
aVNBA
p303
aVNBA
p304
aVNBA
p305
aVNBA
p306
aVNBA
p307
aVNBA
p308
aVNBA
p309
aVNBA
p310
aVNBA
p311
aVNBA
p312
aVNBA
p313
aVCowens Boston
p314
aVAsics
p315
aVNBA
p316
aVNBA
p317
aVNBA
p318
aVNBA
p319
aVNBA
p320
aVNBA
p321
aVNBA
p322
aVNBA
p323
aVNBA
p324
aVNBA
p325
aVNBA
p326
aVNBA
p327
aVNBA
p328
aVNBA
p329
aVNBA
p330
aVNBA
p331
aVNBA
p332
aVNBA
p333
aVNBA
p334
aVNba
p335
aVBD
p336
aVNBA
p337
aVNBA DFS DraftKings Rankings
p338
aVBD
p339
aVNBA
p340
aVDC
p341
aVNon-religious
p342
aVNBA
p343
aVNBA
p344
aVNBA
p345
aVNBA
p346
aVNBA
p347
aVNBA
p348
aVNBA
p349
aVAdjustable Visor
p350
aVNBA
p351
aVNBA
p352
aVNBA
p353
aVNBA
p354
aVNBA
p355
aVEra Navy Black
p356
aVCommonwealth
p357
aVNBA
p358
aVNBA
p359
aVStubHub
p360
aVNBA
p361
aVNBA
p362
aVNBA
p363
aVNBA
p364
aVNike Air Max Lebron XI
p365
aVChina Porcelain White Blue
p366
aVNBA
p367
aVNBA
p368
aVNFL
p369
aVNBA
p370
aVChina 's Checkbook
p371
aVNBA
p372
aVNBA
p373
aVNBA
p374
aVL Red throwback Rockets
p375
aVNBA
p376
aVNBA
p377
aVAFP)
p378
aVNBA
p379
aVMedium
p380
aVNBA
p381
aVNBA
p382
aVNBA
p383
aVNBA
p384
aVNFL
p385
aVMLB
p386
aVNFL
p387
aVNFL
p388
aVNFL
p389
aVHalo
p390
aVFaried
p391
aVNBA
p392
aVTwitter
p393
aVNBA
p394
aVNBA
p395
aVNBA
p396
aVNBA
p397
aVClip
p398
aVNBA
p399
asVfacility
p400
(lp401
VVine
p402
aVStaples Center
p403
aVVine
p404
aVDaily Fantasy Basketball 2015
p405
aVNBA Barber
p406
aVNBA Philippines
p407
aVFox Boston
p408
aVPANINI
p409
aVPANINI
p410
aVPANINI
p411
aVNBA Kicks
p412
aVVine
p413
aVNigerian Bar Association
p414
aVNot Substance
p415
aVNot Substance
p416
aVPANINI
p417
aVthe Georgetown
p418
aVAFP)
p419
aVVine
p420
aVChicago Stadium
p421
aVChicago Stadium
p422
aVCrazy Stat
p423
aVVine
p424
aVGriffin Updates
p425
aVVine
p426
aVNBA Capsules
p427
aVNBA Moneyball
p428
aVChamp Banner Tri-Blend V-Neck Tee
p429
aVVine
p430
asVsportsteam
p431
(lp432
VNBA Trade
p433
aVChicago
p434
aVNBA Trade
p435
aVChicago
p436
aVBulls
p437
aVThunder
p438
aVBlazers
p439
aVLos Angeles Lakers
p440
aVLOS ANGELES CLIPPERS LA MENS NBA WORDMARK KNIT JERSEY PULLOVER HOODY MEDIUM GREY
p441
aVPhiladelphia 76ers
p442
aVGSW HT
p443
aVNba Trade
p444
aVRaptors
p445
aVSpalding NBA Street Basketball
p446
aVNBA Trade
p447
aVOKC
p448
aVChicago Bulls
p449
aVGolden State Warriors
p450
aVNBA Utah Jazz Patch
p451
aVUtah Jazz Carlos Boozer Jersey
p452
aVNBA Utah Jazz Patch
p453
aVThunder
p454
aVHeat
p455
aVCleveland Cavaliers
p456
aVChicago Bulls
p457
aVOKC Thunder
p458
aVChicago Bulls
p459
aVBlazers rout Grizzlies
p460
aVNBA HQ
p461
aVThunder
p462
aVCleveland Cavaliers
p463
aVthe Bulls
p464
aVDenver Nuggets
p465
aVGolden State Warriors
p466
aVHouston Rockets NBA Basketball Youth Swingman
p467
aVGolden State Warriors
p468
aVNBA roundup
p469
aVPacers
p470
aVPistons
p471
aVBoston Celtics
p472
aVHouston Rockets
p473
aVOklahoma City
p474
aVChicago Bulls
p475
aVLos Angeles Lakers
p476
aVGolden State Warriors 1
p477
aVReal Madrid
p478
aVCLEVELAND CAVALIERS BASKETBALL MENS NBA MESH ADIDAS SHORTS
p479
aVSchroder lead Hawks
p480
aVrout of Nets
p481
aVCleveland Cavaliers
p482
aVChicago Bulls
p483
aVWade Birds Eye View Foil Insert
p484
aVMiami Heat
p485
aVChicago Bulls
p486
aVChicago Bulls
p487
aVau Thunder
p488
aVCavs
p489
aVSan Antonio Spurs
p490
aVBoston Celtics Jersey Kevin Garnett Adidas Basketball Youth
p491
aVNBA Capsules
p492
aVLos Angeles Lakers
p493
aVNets
p494
aVAtlanta Hawks
p495
aVNBA Basketball Warmup NBA Basketball Pants
p496
aVCavs
p497
aVNBA Logoman Crew Sock
p498
aVNBA Detroit Pistons Artwork
p499
aVToronto Raptors
p500
aVChicago Bulls
p501
aVOKC Thunder
p502
aVChicago Bulls
p503
aVOklahoma City
p504
aVOKC
p505
aVNBA Vet Week
p506
aVBulls
p507
aVThunder
p508
aVHornets Mavs
p509
aVAllen Iverson Philadelphia
p510
aVMavericks
p511
aVNets
p512
aVCavs
p513
aVRockets
p514
aVChicago Bulls
p515
aVMiami Heat
p516
aVNBA Trade
p517
aVNBA 2K16 MyTeam FaceCam
p518
aVMavericks and Spurs
p519
aVCharlotte Hornets
p520
aV#Bryant Panini #NBA Hoops
p521
aVLos Angeles Lakers
p522
aVCavs
p523
aVOKC Thunder
p524
aVOKC Thunder
p525
aVNBA MVP
p526
aVGolden State Warriors
p527
aVNBA Trade
p528
aVChicago Bulls
p529
aVCleveland Cavaliers
p530
aVPortland Trail Blazers
p531
aVBulls
p532
aVThunder
p533
aVThunder
p534
aVganan Heat
p535
aV#Terra Trail Blazers
p536
aVganan Heat
p537
aVMemphis Grizzlies
p538
aVPortland Trail Blazers
p539
aVTrail Blazers
p540
aVganan Heat
p541
aVPortland Trail Blazers
p542
aVTrail Blazers
p543
aVganan Heat y Hornets
p544
aVTrail Blazers
p545
aVganan Heat y Hornets
p546
aVOklahoma City
p547
aVChicago Bulls
p548
aVTrail Blazers
p549
aVTrail Blazers
p550
aVganan Heat
p551
aVSAN ANTONIO SPURS
p552
aVTrail Blazers
p553
aVganan Heat
p554
aVTrail Blazers
p555
aVganan Heat
p556
aVTrail Blazers
p557
aVganan Heat y Hornets
p558
aVCleveland Cavaliers
p559
aVDallas Mavericks
p560
aVCharlotte Hornets
p561
aVDenver Nuggets
p562
aVUtah Jazz
p563
aVTrail Blazers
p564
aVNBA 2K16 My Team
p565
aVTrail Blazers
p566
aVganan Heat
p567
aVTrail Blazers
p568
aVganan Heat
p569
aVTrail Blazers
p570
aVganan Heat
p571
aVTrail Blazers
p572
aVThunder
p573
aVTrail Blazers
p574
aVTrail Blazers
p575
aVBlazers
p576
aVTrail Blazers
p577
aVganan Heat y Hornets
p578
aVTrail Blazers
p579
aVTrail Blazers
p580
aVGolden State Warriors
p581
aVTrail Blazers
p582
aVganan Heat y Hornets
p583
aVBulls
p584
aVThunder
p585
aVTrail Blazers
p586
aVganan Heat y Hornets
p587
aVOklahoma City
p588
aVChicago Bulls
p589
aVBulls
p590
aVThunder sconfitti
p591
aVChicago Bulls- Oklahoma City Thunder
p592
aVThunder
p593
aVChicago Bulls
p594
aVRockets
p595
aVKings
p596
aVCavs
p597
aVNBA Houston Rockets Panini 2013-2014
p598
aVCharlotte Hornets
p599
aVNBA roundup
p600
aVBulls
p601
aVChicago Bulls
p602
aVMiami Heat
p603
aVBrooklyn Tuskegee Airman
p604
aVCleveland Cavaliers Night T-Shirt
p605
aVChicago Bulls
p606
aVSacramento Kings
p607
aVGolden State Warriors
p608
aVCavs
p609
aVCavs
p610
aVCavs
p611
aVCavs
p612
aVCavs
p613
aVCavs
p614
aVCavs
p615
aVCavs
p616
aVCavs
p617
aVCavs
p618
aVCavs
p619
aVCavs
p620
aVCavs
p621
aVCavs
p622
aVCavs
p623
aVCavs
p624
aVCavs
p625
aVCavs
p626
aVCavs
p627
aVCavs
p628
aVCavs
p629
aVCavs
p630
aVCavs
p631
aVCavs
p632
aVCavs
p633
aVCavs
p634
aVCavs
p635
aVCavs
p636
aVCavs
p637
aVCavs
p638
aVCavs
p639
aVCavs
p640
aVCavs
p641
aVCavs
p642
aVCavs
p643
aVCavs
p644
aVCavs
p645
aVCavs
p646
aVCavs
p647
aVCavs
p648
aVCavs
p649
aVCavs
p650
aVCavs
p651
aVCavs
p652
aVCavs
p653
aVCavs
p654
aVCavs
p655
aVCavs
p656
aVCavs
p657
aVCavs
p658
aVCavs
p659
aVCavs
p660
aVCavs
p661
aVCavs
p662
aVCavs
p663
aVCavs
p664
aVCavs
p665
aVCavs
p666
aVCavs
p667
aVCavs
p668
aVCavs
p669
aVCavs
p670
aVDamian Lill
p671
aVTrail Blazers
p672
aVganan Heat y Hornets
p673
aVBoston Celtics
p674
aVNBA Champions Adidas
p675
aVTHUNDER
p676
aVNBA Trade
p677
aVHeat
p678
aVNBA Trade
p679
aVNBA Trade
p680
aVNBA Trade
p681
aVPanini Select Skills Blue Prizm Refractor
p682
aVMiami Heat
p683
aVSPURS HOF
p684
aVBOSTON CELTICS JERSEY
p685
aVBOSTON CELTICS
p686
aVGolden State Warriors
p687
aVOklahoma City
p688
aVChicago Bulls
p689
aVThe Spurs
p690
aVNBA Trade
p691
aVGolden State Warriors
p692
aVMavericks
p693
aVOhio CAT
p694
aVDenver Nuggets
p695
aVGolden State Warriors
p696
aVGOLDEN STATE WARRIORS
p697
aVNBA Trade
p698
aVChicago
p699
aVChicago
p700
aVNBA Trade
p701
aVChicago
p702
aVNBA Trade
p703
aVChicago
p704
aVChicago
p705
aVChicago
p706
aVNBA Trade
p707
aVChicago
p708
aVNBA Trade
p709
aVChicago
p710
aVNBA Trade
p711
aVChicago
p712
aVPOR Trail Blazers-MEM Grizzlies
p713
aVLos Angeles Lakers
p714
aVLos Angeles Lakers
p715
aVChicago
p716
aVNBA Trade
p717
aVChicago
p718
aVNBA Trade
p719
aVChicago
p720
aVNBA Trade
p721
aVChicago
p722
aVNBA Trade
p723
aVChicago
p724
aVChicago
p725
aVNBA Trade
p726
aVChicago
p727
aVChicago
p728
aVNBA Trade
p729
aVChicago
p730
aVNBA Trade
p731
aVChicago
p732
aVNBA Trade
p733
aVChicago
p734
aVNBA Trade
p735
aVChicago
p736
aVNBA Trade
p737
aVChicago
p738
aVDallas Mavericks
p739
aVNBA Trade
p740
aVChicago
p741
aVNBA Trade
p742
aVChicago
p743
aVChicago
p744
aVNBA Trade
p745
aVChicago
p746
aVGrizzlies Trail Blazers
p747
aVChicago
p748
aVNBA Los Angeles Clippers
p749
aVBlake Griffin Rev30 Swingman Jersey Size XXL New
p750
aVChicago
p751
aVChicago
p752
aVNBA Trade
p753
aVChicago
p754
aVNBA Trade
p755
aVChicago
p756
aVChicago
p757
aVNBA Trade
p758
aVChicago
p759
aVGOLDEN STATE WARRIORS
p760
aVNBA Trade
p761
aVChicago
p762
aVNBA Trade
p763
aVChicago
p764
aVChicago
p765
aVChicago
p766
aVNBA Trade
p767
aVChicago
p768
aVNBA Trade
p769
aVChicago
p770
aVNBA Trade
p771
aVChicago
p772
aVNBA Trade
p773
aVChicago
p774
aVNBA Trade
p775
aVChicago
p776
aVNBA Trade
p777
aVChicago
p778
aVChicago
p779
aVChicago
p780
aVChicago
p781
aVNBA Trade
p782
aVChicago
p783
aVChicago
p784
aVNBA Trade
p785
aVChicago
p786
aVChicago
p787
aVChicago
p788
aVNBA Trade
p789
aVChicago
p790
aVChicago
p791
aVNBA Trade
p792
aVChicago
p793
aVNBA Trade
p794
aVChicago
p795
aVNBA Trade
p796
aVChicago
p797
aVNBA Trade
p798
aVChicago
p799
aVChicago
p800
aVBoston Celtics
p801
aVLA Lakers 2008
p802
aVBoston Celtics
p803
aVLA Lakers 2008
p804
aVLeads Blazers Over Grizzlies
p805
aVTrail Blazers
p806
aVTrail Blazers
p807
aVNBA Team Color Quilted Hobo
p808
aVPortland Trail Blazers
p809
aVKings
p810
aVWarriors
p811
aVBulls
p812
aVNBA roundup
p813
aVBulls
p814
aVBulls
p815
aVToronto Raptors
p816
aVToronto Raptors
p817
aVTeague lifts balanced
p818
aVUniversity Basketball Player
p819
aVHouston Rockets
p820
aVMavericks and Spurs
p821
aVGrizzlies
p822
aVLeBron James Cleveland Cavaliers Majestic
p823
aVThunder
p824
aVNBA Wrap
p825
aVlifts
p826
aVKnicks
p827
aVNBA Trade
p828
aVChicago
p829
aVTrail Blazers
p830
aVNCAA Texas Longhorns
p831
aVThe Lakers
p832
aVCleveland cavaliers
p833
aVAdidas Swingman NBA Jersey
p834
aVAdidas Swingman NBA
p835
aVBOSTON Celtics
p836
aVNike Lebron 12 Elite
p837
aVChicago Bulls
p838
aVMiami Heat
p839
aVlos Wolves
p840
aVGolden State Warriors
p841
aVNBA All-Star Snubs
p842
aVWarriors player
p843
aVGolden State Warriors
p844
aVKnicks
p845
aVESPN NBA Countdown
p846
aVrout
p847
aVWarriors
p848
aVBulls
p849
aVLakers
p850
aV-Robert De Niro
p851
aVHOUSTON ROCKETS
p852
aVGolden State Warriors
p853
aVNot Substance
p854
aVNBA Trade
p855
aVChicago
p856
aVChicago
p857
aVNBA Trade
p858
aVChicago
p859
aVNBA Trade
p860
aVChicago
p861
aVChicago
p862
aVNBA Trade
p863
aVChicago
p864
aVNBA Team after the All-Star Break
p865
aVDenver Nuggets
p866
aVGolden State Warriors
p867
aVOrlando Magic
p868
aVCharlotte Hornets
p869
aVChicago Bulls
p870
aVMiami Heat
p871
aVLos Angeles Lakers
p872
aVXL Yellow Gold
p873
aVLos Angeles Lakers
p874
aVTORONTO RAPTORS VINCE CARTER
p875
aVGOLDEN STATE WARRIORS
p876
aVLakers
p877
aVXXL LOS ANGELES CLIPPERS
p878
aVChicago Bulls
p879
aVOklahoma City Thunder
p880
aVThe Bulls
p881
aVWarriors
p882
aVCSU Asesoft
p883
aVAtlanta #Hawks #NBA Preview
p884
aVWestchester Knicks
p885
aVD-League
p886
aVToronto Raptors Dallas Mavericks
p887
aVNBA roundup
p888
aVWarriors hand Clippers
p889
aVNBA roundup
p890
aVGolden State Warriors
p891
aVTrail Blazers
p892
aVKings
p893
aVKnicks
p894
aVBALONCESTO NBA
p895
aVTrail Blazers
p896
aVNew Orleans Pelicans NBA Fathead Decal Sticker Team Logo
p897
aVMens New Orleans Pelicans adidas Navy Blue
p898
aVGolden State Warriors
p899
aVWashington #Wizards #NBA Preview
p900
aVJazz 96x84 Nuggets
p901
aVGrizzlies 96x115 Blazers
p902
aVlos Wolves
p903
aVrout
p904
aVWarriors
p905
aVChicago Bulls
p906
aVMiami Heat
p907
aVLos Angeles #Lakers #NBA Preview
p908
aVLakers
p909
aVWarriors
p910
aVTrail Blazers
p911
aVMemphis Grizzlies
p912
aVPortland Trail
p913
aVWarriors
p914
aVThe Grizzlies
p915
aVShaqtin
p916
aVIndiana Pacers Escape
p917
aVKnicks
p918
aVChicago Bulls
p919
aVMiami Heat
p920
aVPacers
p921
aVCeltics
p922
aVChicago Bulls
p923
aVBulls
p924
aVBOSTON CELTICS
p925
aVArizona State NCAA
p926
aVNBA LeBron James Cleveland Cavaliers Swingman Gold Jersey Size XL
p927
aVHouston Rockets
p928
aVNBA History
p929
aVNBA Power
p930
aVToronto #Raptors #NBA 2015-16 Preview
p931
aVSurging Raptors
p932
aVMavericks
p933
aVGolden State Warriors
p934
aVleads Blazers
p935
aVState Colin PowellYour
p936
aVThe Hawks
p937
aVRaptors-Orlando Magic
p938
aVBulls bury Thunder
p939
aVhttps: Bulls Tickets
p940
aVAFP)
p941
aVToronto Raptors
p942
aVPacers
p943
aVBlazers
p944
aVDwyane Wade 2003 Patchworks NBA
p945
aVMiami Heat
p946
aVTHUNDER
p947
aV#Boston #Celtics LOGO PLAQUE BASKETBALL NBA
p948
aVBOSTON CELTICS LOGO PLAQUE BASKETBALL NBA
p949
aVMinnesota Timberwolves Yearbook
p950
aVThe Hornets
p951
aVKings
p952
aVvs Rockets
p953
aVRaptors-Orlando Magic NBA
p954
aVNBA Golden State Warriors Men 's Scrum Tee
p955
aVPhiladelphia #76ers #NBA Preview
p956
aVJazz Nuggets
p957
aVHawks topple Heat
p958
aVNBA Wrap
p959
aVThunder
p960
aVHornets
p961
aVWade and Heat
p962
aVMilwaukee Bucks
p963
aVNew York Knicks
p964
aVBulls
p965
aVOKC
p966
aV09 ROCKETS
p967
aVWade Heat
p968
aVyoung NBA
p969
aVLos Angeles Lakers
p970
aVBrooklyn Nets
p971
aVLos Angeles Lakers
p972
aVHornets
p973
aVIndiana Pacers
p974
aVLos Angeles Lakers
p975
aVClippers PG Chris Paul
p976
aVThunder
p977
aVWarriors
p978
aVCeltics
p979
aVLakers
p980
aVGolden State Warriors
p981
aVLos Angeles Lakers
p982
aVOklahoma City Thunder NBA 2015
p983
aVNBA Prospects
p984
aVthe Hornets
p985
aVthe Mavs
p986
aVCrazy Stat
p987
aVChicago Bulls
p988
aVMiami Heat
p989
aVLos Angeles Clippers Basketball Youth Swingman Adidas Jersey S
p990
aVChicago Bulls
p991
aVMiami Heat
p992
aVTimberwolves
p993
aVMiami HEAT
p994
aVTimberwolves
p995
aVThunder
p996
aVCLEVELAND CAVALIERS ADIDAS ADULT ONE SIZE FITS ALL VElCRO
p997
aVWolves
p998
aVMiami Heat
p999
aVlos Wolves
p1000
aVNBA Golden State Warriors Women
p1001
aVChamp Banner Tri-Blend V-Neck Tee
p1002
aVMavericks
p1003
aVPortland Trail Blazers
p1004
aVlos Wolves
p1005
aVBlazers
p1006
aVPacers
p1007
aVWade Heat
p1008
aVThunder
p1009
aVAdidas Swingman NBA
p1010
aVKevin Love Cleveland Cavaliers Bobblehead
p1011
aVPistons
p1012
aVSuns
p1013
aVThunder
p1014
aVLakers
p1015
aVRaptors
p1016
aVThunder
p1017
aVThunder
p1018
aVChicago Bulls
p1019
aVChicago Bulls
p1020
aVOklahoma City Thunder UCLA
p1021
aVNBA Kicks
p1022
aVNBA Kicks
p1023
aVNBA Trade
p1024
aVleads Blazers
p1025
aVCAMISETA NBA JERSEY CHICAGO
p1026
aVDENNIS RODMAN BLACK
p1027
aVNBA Basketball Wandkalender
p1028
aVPhiladelphia 76ers
p1029
aVNBA ROUNDUP
p1030
aVBulls bury Thunder
p1031
aVHOWARD Magic
p1032
aVHouston Rockets Basketball
p1033
aVNBA Rumors
p1034
aVBulls
p1035
aVNBA Golden State Warriors Women
p1036
aVWarriors player
p1037
aVChicago Bulls
p1038
aVMiami Heat
p1039
aVChicago Bulls
p1040
aVMiami Heat
p1041
aVChicago Bulls
p1042
aVMiami Heat
p1043
aVChicago Bulls
p1044
aVMiami Heat
p1045
aVChicago Bulls
p1046
aVMiami Heat
p1047
aVChicago Bulls
p1048
aVMiami Heat
p1049
aVChicago Bulls
p1050
aVMiami Heat
p1051
aVChicago Bulls
p1052
aVMiami Heat
p1053
aVChicago Bulls
p1054
aVMiami Heat
p1055
aVChicago Bulls
p1056
aVMiami Heat
p1057
aVAFP)
p1058
aVfor Rockets
p1059
aVWillie Cauley-Stein
p1060
aVThunder
p1061
aVMiami Heat
p1062
aVIndiana Pacers
p1063
aVRaptors-Magic Preview
p1064
aVNBA Capsules
p1065
aVThunder
p1066
aVBoys Medium Dallas
p1067
aVNowitzki NBA
p1068
aV#Bryant Panini #NBA Hoops
p1069
aVLos Angeles Lakers
p1070
aVAuthentic Los Angeles LA Clippers Blake Griffin Adidas NBA Jersey Large L
p1071
aVThunder
p1072
aVChicago Bulls
p1073
aVThunder
p1074
aVThunder
p1075
aVGOLDEN STATE WARRIORS
p1076
aVLos Angeles Clippers
p1077
aVMemphis Grizzlies
p1078
aVThunder
p1079
aVKenny On Kobe
p1080
aVSpurs Knicks
p1081
aVBlazers rout Grizzlies
p1082
aVThunder
p1083
aVBulls
p1084
aVThunder
p1085
aVNBA PORTLAND TRAIL BLAZERS BOB GROSS PIN
p1086
aVBulls
p1087
aVThunder
p1088
aVBulls
p1089
aVThunder
p1090
aVBulls
p1091
aVBulls
p1092
aVChicago Bulls
p1093
aVCharlotte Bobcats
p1094
asVNONE
p1095
(lp1096
VDallas #Mavericks Blue X-Large Short Sleeve Tee
p1097
aVIman Shumpert Records
p1098
aVganan Heat y Hornets
p1099
aVNuggets vs . Jazz Gallery
p1100
aV#Boston #Celtics 2008 NBA Champions Adidas
p1101
aVNBA Capsules
p1102
aVganan Heat
p1103
aVHornets 108x94 Mavs
p1104
aVCeltics-Pacers Preview
p1105
aVDamian Lillard
p1106
aVHong Kong Standard
p1107
aVDerrick Rose Adidas wallpapers
p1108
aVNBA Charlotte Hornets News &amp; Trade
p1109
aVMavs Carlisle
p1110
aVVintage Rose pumps up Bulls
p1111
asVDay
p1112
(lp1113
VB-Day
p1114
asVperson
p1115
(lp1116
VDerrick Rose
p1117
aVDerrick Rose
p1118
aVLamar Odom
p1119
aVMerle
p1120
aVNBA
p1121
aVDwyane Wade
p1122
aVNBA
p1123
aVLeBron James
p1124
aVNBA
p1125
aVNBA
p1126
aVVintage Rose
p1127
aVMemphis
p1128
aVAnthony Davis
p1129
aVKyrie Irving
p1130
aVNBA
p1131
aVCorey
p1132
aVWilliams
p1133
aVDario Saric
p1134
aVNBA
p1135
aVDerrick
p1136
aVDerrick Rose
p1137
aVkobe
p1138
aVMike Conley
p1139
aVKosta Koufos
p1140
aVDwyane Wade
p1141
aVNBA
p1142
aVNBA
p1143
aVNBA Star Ray Allen
p1144
aVDwyane Wade
p1145
aVlos Wolves
p1146
aVAlston
p1147
aVKevin Durant
p1148
aVJames
p1149
aVLuke Walton
p1150
aVMcDermott
p1151
aVNBA
p1152
aVBradley Beal
p1153
aVJohn Wall
p1154
aVJalen Rose
p1155
aVTrey
p1156
aVUtah Jazz Carlos Boozer Jersey
p1157
aVKobe
p1158
aVDwyane Wade
p1159
aVRose
p1160
aVBulls
p1161
aVDerrick
p1162
aVLeBron James
p1163
aVAskmen Magz
p1164
aVDerrick Rose
p1165
aVNBA
p1166
aVYoung
p1167
aVNBA
p1168
aVRose
p1169
aVNick
p1170
aVChyanne Jacobs
p1171
aVRose
p1172
aVNBA
p1173
aVTom Thibodeau Save LA Lakers
p1174
aVcraig
p1175
aVJEREMY LIN
p1176
aVNBA
p1177
aVRose
p1178
aVVintage
p1179
aVDennis Rodman
p1180
aVDwyane Wade
p1181
aVWade Heat
p1182
aVGerald Green
p1183
aVMerle
p1184
aVNBA
p1185
aVNBA
p1186
aVMemphis
p1187
aVACCA
p1188
aVMICHAEL JORDAN
p1189
aVNational Green
p1190
aVNBA Trade
p1191
aVJoakim Noah
p1192
aVMario Chalmers
p1193
aVSleeved Jerseys
p1194
aVNBA
p1195
aVKobe
p1196
aVRose
p1197
aVNBA
p1198
aVDwyane Wade
p1199
aVChris Bosh
p1200
aVDwyane Wade
p1201
aVJ.R. Smith
p1202
aVDanilo Gallinari
p1203
aV2010-11 Panini
p1204
aVDerrick Rose
p1205
aVNick Saban
p1206
aVNick Saban
p1207
aVNick Saban
p1208
aVJimmy
p1209
aVNick Young
p1210
aVSteph Curry
p1211
aVWade Rookie RC
p1212
aVNick Saban
p1213
aVNick Saban
p1214
aVMichael Jordan #Topps
p1215
aVNick Saban
p1216
aVDerrick Rose
p1217
aVBrowns
p1218
aVJewellery Makin
p1219
aVLeBron
p1220
aVKobe Bryant
p1221
aVKobe Bryant
p1222
aVNBA
p1223
aVNBA
p1224
aVBrooklyn Nets
p1225
aVTori Black
p1226
aVLexington Steele
p1227
aVWade
p1228
aVNBA
p1229
aVNBA
p1230
aVBrowns
p1231
aVNBA
p1232
aVLeBron James
p1233
aVDeviantArt
p1234
aVJamal Crawford
p1235
aVDwight Howard
p1236
aVDerrick Rose
p1237
aVKobe Bryant
p1238
aVKobe Bryant
p1239
aVNBA
p1240
aVMIA
p1241
aVSteve Nash
p1242
aVKobe Bryant
p1243
aVNBA
p1244
aVKobe Bryant
p1245
aVNBA
p1246
aVNBC4 Washington
p1247
aVNBA
p1248
aVRose
p1249
aVSpurs hope Aldridge
p1250
aVNBC4 Washington
p1251
aVNBC4 Washington
p1252
aVPro Package
p1253
aVJeffrey Yourman
p1254
aVKe
p1255
aVNBA
p1256
aVBrowns
p1257
aVNBA
p1258
aVKobe Bryant
p1259
aVKobe Bryant
p1260
aVNuggets-Warriors Preview
p1261
aVRockets-Kings Preview
p1262
aVHeat-Pacers Preview
p1263
aVMel Daniels
p1264
aVLeBron James
p1265
aVPaul George
p1266
aVAndroid
p1267
aVMOD
p1268
aVLeBron James
p1269
aVPaul George
p1270
aVGrant Hill
p1271
aVLillard
p1272
aVOKC
p1273
aVKevin Durant
p1274
aVJames
p1275
aV@aiirxjones
p1276
aVNBA DFS Must-Starts
p1277
aVDwyane Wade
p1278
aVHeat beat Wolves
p1279
aVKobe Bryant
p1280
aVNBA
p1281
aVNBA
p1282
aVKobe Bryant
p1283
aVJada Fire
p1284
aVBrowns
p1285
aVDerrick Rose
p1286
aVDerrick Rose
p1287
aVNBA
p1288
aVDeron Williams
p1289
aVLeBron
p1290
aVBradley Beal
p1291
aVJohn Wall
p1292
aVOKC
p1293
aVKevin Durant
p1294
aVJames
p1295
aVEric Spoelstra
p1296
aVGerald Green
p1297
aVJulius Peppers
p1298
aVStephen Curry
p1299
aVNBA
p1300
aV#Terra Trail Blazers
p1301
aVKobe Bryant
p1302
aVStephen Curry
p1303
aVCurry
p1304
aVKareem Abdul-Jabbar
p1305
aVIronman Triathlon NBA
p1306
aVganan Heat
p1307
aVTim Duncan
p1308
aVPANINI NBA HOOPS
p1309
aVganan Heat
p1310
aVNBA
p1311
aVRose
p1312
aVNBA
p1313
aVNBA
p1314
aVBradley Beal
p1315
aVJohn Wall
p1316
aVganan Heat y Hornets
p1317
aVMarco Belinelli
p1318
aVEbola
p1319
aVRose
p1320
aVNBA
p1321
aVRose
p1322
aVBulls
p1323
aVKareem Abdul-Jabbar
p1324
aV#NBA Harris
p1325
aVBen Simmons
p1326
aVNBA
p1327
aVDerrick Rose
p1328
aVSt . Croix
p1329
aVTim Duncan
p1330
aVNBA
p1331
aVBrowns
p1332
aVKobe Bryant
p1333
aVNBA
p1334
aVKobe Bryant
p1335
aVNBA
p1336
aVKobe Bryant
p1337
aVNBA
p1338
aVKobe Bryant
p1339
aVNBA
p1340
aVKobe Bryant
p1341
aVNBA
p1342
aVKobe Bryant
p1343
aVKobe Bryant
p1344
aVNBA
p1345
aVKobe Bryant
p1346
aVMemphis
p1347
aVKobe Bryant
p1348
aVKobe Bryant
p1349
aVNBA
p1350
aVKobe Bryant
p1351
aVKobe Bryant
p1352
aVNBA
p1353
aVKobe Bryant
p1354
aVNBA
p1355
aVKobe Bryant
p1356
aVKobe Bryant
p1357
aVKobe Bryant
p1358
aVKobe Bryant
p1359
aVNBA
p1360
aVKobe Bryant
p1361
aVNBA
p1362
aVKobe Bryant
p1363
aVNBA
p1364
aVKobe Bryant
p1365
aVKobe Bryant
p1366
aVNBA
p1367
aVKobe Bryant
p1368
aVNBA
p1369
aVKobe Bryant
p1370
aVNBA
p1371
aVKobe Bryant
p1372
aVNBA
p1373
aVKobe Bryant
p1374
aVKobe Bryant
p1375
aVNBA
p1376
aVKobe Bryant
p1377
aVNBA
p1378
aVKobe Bryant
p1379
aVKobe Bryant
p1380
aVKobe Bryant
p1381
aVKobe Bryant
p1382
aVNBA
p1383
aVKobe Bryant
p1384
aVNBA
p1385
aVKobe Bryant
p1386
aVNBA
p1387
aVKobe Bryant
p1388
aVKobe Bryant
p1389
aVKobe Bryant
p1390
aVNBA
p1391
aVKobe Bryant
p1392
aVNBA
p1393
aVKobe Bryant
p1394
aVNBA
p1395
aVKobe Bryant
p1396
aVNBA
p1397
aVKobe Bryant
p1398
aVKobe Bryant
p1399
aVNBA
p1400
aVKobe Bryant
p1401
aVNBA
p1402
aVKobe Bryant
p1403
aVNBA
p1404
aVKobe Bryant
p1405
aVNBA
p1406
aVGerald Green
p1407
aVKobe Bryant
p1408
aVNBA
p1409
aVKobe Bryant
p1410
aVKobe Bryant
p1411
aVKobe Bryant
p1412
aVNBA
p1413
aVKobe Bryant
p1414
aVKobe Bryant
p1415
aVNBA
p1416
aVKobe Bryant
p1417
aVNBA
p1418
aVKobe Bryant
p1419
aVNBA
p1420
aVKobe Bryant
p1421
aVKobe Bryant
p1422
aVNBA
p1423
aVKobe Bryant
p1424
aVKobe Bryant
p1425
aVNBA
p1426
aVKobe Bryant
p1427
aVNBA
p1428
aVKobe Bryant
p1429
aVNBA
p1430
aVKobe Bryant
p1431
aVKobe Bryant
p1432
aVNBA
p1433
aVKobe Bryant
p1434
aVKobe Bryant
p1435
aVKobe Bryant
p1436
aVNBA
p1437
aVKobe Bryant
p1438
aVKobe Bryant
p1439
aVNBA
p1440
aVKobe Bryant
p1441
aVNBA
p1442
aVKobe Bryant
p1443
aVNBA
p1444
aVKobe Bryant
p1445
aVNBA
p1446
aVKobe Bryant
p1447
aVKobe Bryant
p1448
aVNBA
p1449
aVKobe Bryant
p1450
aVKobe Bryant
p1451
aVKobe Bryant
p1452
aVNBA
p1453
aVKobe Bryant
p1454
aVNBA
p1455
aVKobe Bryant
p1456
aVKobe Bryant
p1457
aVKobe Bryant
p1458
aVNBA
p1459
aVKobe Bryant
p1460
aVNBA
p1461
aVKobe Bryant
p1462
aVNBA Crazy Bloopers
p1463
aVKobe Bryant
p1464
aVKobe Bryant
p1465
aVNBA
p1466
aVKobe Bryant
p1467
aVNBA
p1468
aVKobe Bryant
p1469
aVNBA
p1470
aVKobe Bryant
p1471
aVNBA
p1472
aVKobe Bryant
p1473
aVKobe Bryant
p1474
aVKobe Bryant
p1475
aVNBA
p1476
aVKobe Bryant
p1477
aVNBA
p1478
aVKobe Bryant
p1479
aVKobe Bryant
p1480
aVNBA
p1481
aVKobe Bryant
p1482
aVNBA
p1483
aVKobe Bryant
p1484
aVKobe Bryant
p1485
aVNBA
p1486
aVJoakim Noah
p1487
aVMario Chalmers
p1488
aVKobe Bryant
p1489
aVKobe Bryant
p1490
aVKobe Bryant
p1491
aVKobe Bryant
p1492
aVNBA
p1493
aVKobe Bryant
p1494
aVNBA
p1495
aVKobe Bryant
p1496
aVNBA
p1497
aVKobe Bryant
p1498
aVNBA
p1499
aVKobe Bryant
p1500
aVNBA
p1501
aVKobe Bryant
p1502
aVNBA
p1503
aVKobe Bryant
p1504
aVNBA
p1505
aVKobe Bryant
p1506
aVNBA
p1507
aVKobe Bryant
p1508
aVNBA
p1509
aVKobe Bryant
p1510
aVNBA
p1511
aVKobe Bryant
p1512
aVKobe Bryant
p1513
aVNBA
p1514
aVKobe Bryant
p1515
aVKobe Bryant
p1516
aVKobe Bryant
p1517
aVKobe Bryant
p1518
aVNBA
p1519
aVKobe Bryant
p1520
aVNBA
p1521
aVKobe Bryant
p1522
aVNBA
p1523
aVKobe Bryant
p1524
aVKobe Bryant
p1525
aVKobe Bryant
p1526
aVKobe Bryant
p1527
aVKobe Bryant
p1528
aVKobe Bryant
p1529
aVNBA
p1530
aVKobe Bryant
p1531
aVNBA
p1532
aVKobe Bryant
p1533
aVNBA
p1534
aVKobe Bryant
p1535
aVKobe Bryant
p1536
aVKobe Bryant
p1537
aVNBA
p1538
aVNBA
p1539
aVKobe Bryant
p1540
aVKobe Bryant
p1541
aVInserts Jeremy Lin
p1542
aVKobe Bryant
p1543
aVNBA
p1544
aVKobe Bryant
p1545
aVKobe Bryant
p1546
aVKobe Bryant
p1547
aVNBA
p1548
aVKobe Bryant
p1549
aVNBA
p1550
aVShaq
p1551
aVNicki
p1552
aVKenny
p1553
aVErnie
p1554
aVGrant
p1555
aVLexington Steele
p1556
aVKobe Bryant
p1557
aVNBA
p1558
aVMichael Jordan
p1559
aVPortland
p1560
aVNike Foamposite One
p1561
aV" Knicks
p1562
aVTy Lawson Chris Paul
p1563
aVKarl Towns
p1564
aVBen Simmons
p1565
aVNBA
p1566
aVNBA
p1567
aVBrowns
p1568
aVNBA
p1569
aVBrowns
p1570
aVNBA
p1571
aVBrowns
p1572
aVBrowns
p1573
aVBrowns
p1574
aVBrowns
p1575
aVBrowns
p1576
aVNBA
p1577
aVBrowns
p1578
aVBrowns
p1579
aVBrowns
p1580
aVBrowns
p1581
aVBrowns
p1582
aVNBA
p1583
aVBrowns
p1584
aVNBA
p1585
aVBrowns
p1586
aVNBA
p1587
aVBrowns
p1588
aVBrowns
p1589
aVBrowns
p1590
aVBrowns
p1591
aVNBA
p1592
aVBrowns
p1593
aVBrowns
p1594
aVNBA
p1595
aVBrowns
p1596
aVBrowns
p1597
aVBrowns
p1598
aVBrowns
p1599
aVBrowns
p1600
aVNBA
p1601
aVBrowns
p1602
aVBrowns
p1603
aVNBA
p1604
aVBrowns
p1605
aVBrowns
p1606
aVBrowns
p1607
aVNBA
p1608
aVBrowns
p1609
aVBrowns
p1610
aVNBA
p1611
aVBrowns
p1612
aVNBA
p1613
aVBrowns
p1614
aVBrowns
p1615
aVBrowns
p1616
aVNBA
p1617
aVBrowns
p1618
aVNBA
p1619
aVBrowns
p1620
aVNBA
p1621
aVBrowns
p1622
aVBrowns
p1623
aVNBA
p1624
aVBrowns
p1625
aVNBA
p1626
aVBrowns
p1627
aVBrowns
p1628
aVNBA
p1629
aVBrowns
p1630
aVBrowns
p1631
aVBrowns
p1632
aVBrowns
p1633
aVNBA
p1634
aVBrowns
p1635
aVBrowns
p1636
aVBrowns
p1637
aVBrowns
p1638
aVBrowns
p1639
aVNBA
p1640
aVBrowns
p1641
aVNBA
p1642
aVBrowns
p1643
aVBrowns
p1644
aVBrowns
p1645
aVBrowns
p1646
aVNBA
p1647
aVBrowns
p1648
aVBrowns
p1649
aVBrowns
p1650
aVNBA
p1651
aVBrowns
p1652
aVLillard
p1653
aVYahoo Sports)
p1654
aVNoah
p1655
aVGibson
p1656
aVJoakim Noah
p1657
aVMario Chalmers
p1658
aVShaqtin
p1659
aVDerrick Rose
p1660
aVJoakim Noah
p1661
aVMario Chalmers
p1662
aVNBA Trade
p1663
aVJoakim Noah
p1664
aVMario Chalmers
p1665
aVNBA
p1666
aVLeBron James
p1667
aVNBA
p1668
aVDwyane Wade
p1669
aVJoakim Noah
p1670
aVMario Chalmers
p1671
aVJoakim Noah
p1672
aVMario Chalmers
p1673
aVJoakim Noah
p1674
aVMario Chalmers
p1675
aVNBA HOOPS
p1676
aVJAMES HIGH
p1677
aVDwyane Wade
p1678
aVRudy Gobert
p1679
aVRudy Gobert
p1680
aVDwyane Wade
p1681
aVNBA
p1682
aVNBA
p1683
aVKristaps Porzingis
p1684
aVKevin Love
p1685
aVTIM DUNCAN
p1686
aVNBA
p1687
aVDerrick Rose
p1688
aVJimmy Butler
p1689
aVNBA
p1690
aVNBA
p1691
aVGerald Green
p1692
aVNBA
p1693
aVWade
p1694
aVDelly
p1695
aVDwight Howard
p1696
aVPanini Signatures
p1697
aVDwyane Wade
p1698
aVNBA
p1699
aVShaqtin
p1700
aVPresident Obama
p1701
aVScott
p1702
aVNBA
p1703
aVJoakim Noah
p1704
aVMario Chalmers
p1705
aVNBA
p1706
aVNBA
p1707
aVRose
p1708
aVCarlisle
p1709
aVLeBron James
p1710
aVPaul George
p1711
aVnba
p1712
aVNon-religious
p1713
aVBen Carson
p1714
aVNon-religious
p1715
aVBen Carson
p1716
aVBen Carson
p1717
aVNon-religious
p1718
aVBen Carson
p1719
aVNon-religious
p1720
aVBen Carson
p1721
aVNon-religious
p1722
aVBen Carson
p1723
aVVan Gundy
p1724
aVJohnson
p1725
aVLeBron
p1726
aVClippers PG Chris Paul
p1727
aVJR Smith
p1728
aV#action Griz
p1729
aVNBA
p1730
aVTJ McConnell
p1731
aVStephen Curry
p1732
aVNBA
p1733
aVDerrick Rose
p1734
aVNBA
p1735
aVDerrick Rose
p1736
aVNowitzki
p1737
aVDerrick Rose
p1738
aVDerrick Rose
p1739
aVDerrick Rose
p1740
aVDerrick Rose
p1741
aVDerrick Rose
p1742
aVDerrick Rose
p1743
aVDerrick Rose
p1744
aVDerrick Rose
p1745
aVDerrick Rose
p1746
aVDerrick Rose
p1747
aVDerrick Rose
p1748
aVDerrick Rose
p1749
aVNBA Trade
p1750
aVDerrick Rose
p1751
aVDerrick Rose
p1752
aVDerrick Rose
p1753
aVDerrick Rose
p1754
aVDerrick Rose
p1755
aVDerrick Rose
p1756
aVDerrick Rose
p1757
aVDerrick Rose
p1758
aVDerrick Rose
p1759
aVDerrick Rose
p1760
aVNBA Trade
p1761
aVDerrick Rose
p1762
aVSIGNUP BONUS
p1763
aVDerrick Rose
p1764
aVNBA Trade
p1765
aVDerrick Rose
p1766
aVNBA
p1767
aVDerrick Rose
p1768
aVDerrick Rose
p1769
aVDerrick Rose
p1770
aVDerrick Rose
p1771
aVNBA Trade
p1772
aVDerrick Rose
p1773
aVDerrick Rose
p1774
aVStephen Curry
p1775
aVDerrick Rose
p1776
aVDerrick Rose
p1777
aVDerrick Rose
p1778
aVDerrick Rose
p1779
aVDerrick Rose
p1780
aVDerrick Rose
p1781
aVDerrick Rose
p1782
aVDerrick Rose
p1783
aVDerrick Rose
p1784
aVDerrick Rose
p1785
aVDerrick Rose
p1786
aVChampion Indiana
p1787
aVReggie Miller Vintage
p1788
aVNBA Trade
p1789
aVDerrick Rose
p1790
aVEbook
p1791
aVPhilippines
p1792
aVCHI
p1793
aVDerrick Rose
p1794
aVDerrick Rose
p1795
aVSteph Curry
p1796
aVDerrick Rose
p1797
aVDerrick Rose
p1798
aVDerrick Rose
p1799
aVNBA Trade
p1800
aVDerrick Rose
p1801
aVDerrick Rose
p1802
aVNBA Trade
p1803
aVDerrick Rose
p1804
aVDerrick Rose
p1805
aVDerrick Rose
p1806
aVDerrick Rose
p1807
aVDerrick Rose
p1808
aVDerrick Rose
p1809
aVJohn Wall
p1810
aVNBA
p1811
aVGeorge
p1812
aVJames
p1813
aVLeBron James
p1814
aVDamian Lillard
p1815
aVLillard
p1816
aVDamian Lillard
p1817
aVLillard
p1818
aVMemphis Gr
p1819
aVLillard
p1820
aVYahoo Sports
p1821
aVTim Duncan Spurs
p1822
aVGarnett Celtics
p1823
aVGeorge
p1824
aVJames
p1825
aVNBA
p1826
aVSports IllustratedNBA CapsulesNew York TimesThe Mavericks
p1827
aVNBA
p1828
aVStephen curry
p1829
aVNBA
p1830
aVJONATHAN DANIEL Images
p1831
aVGeorge
p1832
aVJames
p1833
aVSteph Curry
p1834
aVMark Cuban
p1835
aVRick Carlisle
p1836
aV#NBA Phil Scrubb
p1837
aVLeBron James
p1838
aVJJ Hickson
p1839
aVJJ Hickson
p1840
aVNBA
p1841
aVMichael Jordan Auto Autograph
p1842
aVKobe Bryant
p1843
aVNike
p1844
aVNBA
p1845
aVDeMarcus Cousins
p1846
aVAnthony Davis
p1847
aVNBA
p1848
aVJEREMY LIN
p1849
aVLillard
p1850
aVLeBron
p1851
aVJohn Wall
p1852
aVNBA
p1853
aVFelton
p1854
aVLeBron James
p1855
aVPaul George
p1856
aVGeorge Karl
p1857
aVLionel Hollins
p1858
aVDerrick Rose
p1859
aVKobe Bryant
p1860
aVMerle
p1861
aVSpurs Action
p1862
aVLeBron
p1863
aVNBA
p1864
aVAndrew
p1865
aVDerrick Rose
p1866
aVGerald Green
p1867
aVGerald Green
p1868
aVMerle
p1869
aVDwyane Wade
p1870
aVNBA
p1871
aVNBA
p1872
aVJune 2016
p1873
aVLeBron James
p1874
aVKobe Bryant
p1875
aVNBA
p1876
aV2008 BOWMAN
p1877
aVTopps 2003-04 Dwyane Wade
p1878
aVNBA HOOPS BOBBY PORTIS
p1879
aVDERRICK ROSE INSERTS PARALLELS**
p1880
aVDwyane Wade
p1881
aVMatt Barnes Brandan Wright
p1882
aVZach Randolph
p1883
aVMason Plumlee
p1884
aVSteph Curry
p1885
aVDwyane Wade
p1886
aVAl Jefferson
p1887
aVNBA
p1888
aVGerald Green
p1889
aVGerald Green
p1890
aVHayward
p1891
aVSteve Kerr
p1892
aVParker
p1893
aVNBA
p1894
aVVintage Rose pumps up Bulls
p1895
aVJames
p1896
aVSage Steele
p1897
aV@TMART_ESPN Hornets
p1898
aVDario Saric
p1899
aVSteve Nash
p1900
aVThaddeus Young
p1901
aVNBA
p1902
aVDerrick Rose
p1903
aVRussell Westbrook
p1904
aVChicago
p1905
aVNBA
p1906
aVTJ McConnell
p1907
aVNBA
p1908
aVGerald Green
p1909
aVNBA
p1910
aVGerald Green
p1911
aVWADE FROM PAST
p1912
aVEXCALIBUR DWIGHT HOWARD
p1913
aVKobe Bryant
p1914
aVLeBron James
p1915
aVPaul George
p1916
aVNot Substance
p1917
aVNot Substance
p1918
aVGerald Green
p1919
aVDerrick Rose
p1920
aVDerrick Rose
p1921
aVRussell Westbrook
p1922
aVDerrick Rose
p1923
aVDerrick Rose
p1924
aVDerrick Rose
p1925
aVDerrick Rose
p1926
aVDerrick Rose
p1927
aVLeBron James
p1928
aVPaul George
p1929
aVKobe Bryant
p1930
aVLeBron James
p1931
aVPaul George
p1932
aVNBA
p1933
aVNBA Trade
p1934
aVJoakim Noah
p1935
aVMario Chalmers
p1936
aVLamar Odom
p1937
aVLamar Odom
p1938
aVAnthony Davis
p1939
aVLamar Odom
p1940
aVLamar Odom
p1941
aVDerrick Rose
p1942
aVGRAY NWT
p1943
aVDirk Nowitzki
p1944
aVLarry Nance
p1945
aVStephen Curry
p1946
aVKobe Bryant
p1947
aVWestbrook
p1948
aVKD
p1949
aVDerrick Rose
p1950
aVrout
p1951
aVNBA
p1952
aVSleeved Jerseys
p1953
aVJimmer Fredette
p1954
aVNba
p1955
aVLeBron James
p1956
aVNBA
p1957
aVMiami #Heat #NBA 2015-16 Preview
p1958
aVRose
p1959
aVAFP)
p1960
aVRose
p1961
aVRose
p1962
aVAFP)
p1963
aVRose
p1964
aVButler
p1965
aVTimberwolves News Rose
p1966
aVAFP)
p1967
aVRose
p1968
aVDerrick Rose
p1969
aVvs Rockets
p1970
aVNBA Capsules
p1971
aVDerrick Rose
p1972
aVJimmy Butler
p1973
aVLeBron James
p1974
aVPaul George
p1975
aVDwyane Wade
p1976
aVLeBron James
p1977
aVPaul George
p1978
aVMerle
p1979
aVChuck
p1980
aVganan Heat
p1981
aVAnthony Davis
p1982
aVJimmy Butler
p1983
aVDion Waiters
p1984
aVJimmy Butler
p1985
aVDion Waiters
p1986
aVJimmy Butler
p1987
aVDion Waiters
p1988
aVGerald Green
p1989
aVGerald Green
p1990
aVMerle
p1991
aVNBA
p1992
aVDwyane Wade
p1993
aVLeBron
p1994
aVLeBron James
p1995
aVPaul George
p1996
aVBrooklyn
p1997
aVNBA
p1998
aVHS
p1999
aVDerrick Rose
p2000
aVRussell Westbrook
p2001
aVMonta Ellis
p2002
aVRuss
p2003
aVRose
p2004
aVTNT
p2005
aVNBA Roundup
p2006
aVJames
p2007
aVKobe Bryant
p2008
aVGeorge
p2009
aVMichael Jordan
p2010
aVfinalmente Rose
p2011
aVFlip Saunders
p2012
aVShaq
p2013
aVKenny
p2014
aVUpper Deck Lettermen
p2015
aVJeremy Lin
p2016
aVRose
p2017
aVRose
p2018
aVButler
p2019
aVStephen Curry
p2020
aVNBA
p2021
aVTrey
p2022
aVNBA
p2023
aVRose
p2024
aVAFP)
p2025
aVRose
p2026
aV@ymdgento
p2027
aVNBA 2K16 PS4 MyTEAM PACK
p2028
aVDWIGHT HOWARD
p2029
aVAl Jefferson
p2030
aVNBA
p2031
aVLillard
p2032
aVDoc Rivers
p2033
aVLance Stephenson
p2034
aVNBA
p2035
aVAFP)
p2036
aVRose
p2037
aVButler
p2038
aVRose
p2039
aVRose
p2040
aVRose
p2041
aVNBL
p2042
aVNBA
p2043
aVSolomon Hill
p2044
aVNBA
p2045
aVMITCHELL
p2046
aVLee Replacement
p2047
aVKevin Garnett
p2048
aVPanini Threads #79 Jared Sullinger
p2049
aVKevin Garnett
p2050
aVDerrick Rose Jimmy Butler
p2051
aVNBA
p2052
aVKareem Abdul-Jabbar
p2053
aVNBA
p2054
aVRicky
p2055
aVAlvin Gentry
p2056
aVGolden Sta
p2057
aVLillard
p2058
aVMemphis
p2059
aVDario Saric
p2060
aVKobe Bryant
p2061
aVKareem Abdul-Jabbar
p2062
aVJeff Teague
p2063
aVDerrick Rose
p2064
aVRose
p2065
aVHoops Rajon Rondo
p2066
aVClippers PG Chris Paul
p2067
aVNBA
p2068
aVNational Green
p2069
aVDwyane Wade
p2070
aVAlexis Silver
p2071
aVNBA
p2072
aVDerrick Rose
p2073
aVCarmelo Anthony
p2074
aVFESTUS
p2075
aVWade
p2076
aVLeonard
p2077
aVCrazy Stat
p2078
aVDerrick Favors ' Frustrated
p2079
aVStephen Curry
p2080
aVLondon
p2081
aVClippers PG Chris Paul
p2082
aVRose
p2083
aVNBA
p2084
aVJordan
p2085
aVWestbrook
p2086
aVLeBron James
p2087
aVDwyane Wade
p2088
aVXbox
p2089
aVLebron James
p2090
aVKOBE BRYANT
p2091
aVDerrick Rose
p2092
aVJimmy Butler
p2093
aVDurant
p2094
aVWestbrook
p2095
aVJordan Kobe
p2096
aVJames
p2097
aVMalone Duncan
p2098
aVTrey
p2099
aVKOBE BRYANT
p2100
aVJordan
p2101
aVMichael Jordan
p2102
aVDirk
p2103
aVStephen Curry
p2104
aVDerrick Rose
p2105
aVKobe Bryant
p2106
aVRanking Curry
p2107
aVWestbrook
p2108
aVNBA
p2109
aVDwyane Wade
p2110
aVJeremy Lin
p2111
aVKOBE BRYANT
p2112
aVKobe Bryant
p2113
aVNBA
p2114
aVNon-BCS
p2115
aVAl Jefferson
p2116
aVPaul
p2117
aVGriffin Updates
p2118
aVPaul
p2119
aVRose
p2120
aVBLAKE GRIFFIN
p2121
aVRick Carlisle
p2122
aVStephen Curry
p2123
aVLamar Odom
p2124
aVLamar Odom
p2125
aVLamar Odom
p2126
aVLamar Odom
p2127
aVBradley Beal
p2128
aVJohn Wall
p2129
aVBradley Beal
p2130
aVJohn Wall
p2131
aVRose
p2132
aVRose
p2133
aVWestbrook
p2134
aVKristaps Porzingis
p2135
aVLaMarcus Aldridge
p2136
aVDerrick Rose
p2137
aVAdams
p2138
aVBulls
p2139
aVCLEVELAND CAVALIERS ADIDAS ADULT ONE SIZE ALL VElCRO
p2140
aVDwyane Wade
p2141
aVDwyane Wade
p2142
aVLondon
p2143
aVRick Carlisle
p2144
aVNBA
p2145
aVDamian Lillard
p2146
aVAir Max
p2147
aVDwyane Wade
p2148
aVSteph Curry
p2149
aVC.J. McCollum
p2150
aVWIGGINS
p2151
aVDanilo #Gallinari
p2152
aVNBA
p2153
aVRose
p2154
aVNBA
p2155
aVNBA TIX
p2156
aVNba
p2157
aVJosh Smith
p2158
aVMichael Jordan
p2159
aVLeBron James
p2160
aVMichael Jordan
p2161
aVGRANT HILL DETROIT
p2162
aVJeremy Lin
p2163
aVNike Air KD
p2164
aVNBA
p2165
aVJapan Times ] Rose
p2166
aVNBA
p2167
aVHarden
p2168
aV2016 Olympics
p2169
aVRuss
p2170
aVRose
p2171
aVTNT
p2172
aVPaul
p2173
aVLeBron James
p2174
aVDerrick Favors
p2175
aVDeMarcus Cousins Kings-Clippers
p2176
aVLexington Steele
p2177
aVMelissa Lauren
p2178
aVKobe Bryant
p2179
aVRonnie Price
p2180
aVNBA Power Rankings
p2181
aVPistons stun league
p2182
aVMason Plumlee
p2183
aVTNT
p2184
aVDeRozan
p2185
aVRose
p2186
aVDerrick Ros
p2187
aVDerrick Rose 2010 UD Greats
p2188
aVStephen Curry
p2189
aVDWYANE WADE 2005 FINEST CARD
p2190
aVNick
p2191
aVNick
p2192
aVNBA
p2193
aVWade
p2194
aVPau Gasol
p2195
aVDerrick Rose
p2196
aVJoakim Noah
p2197
aVJoakim Noah
p2198
aVMario Chalmers
p2199
aVRose
p2200
aVToronto
p2201
aVDeMarre Carroll
p2202
aVLillard
p2203
aVDeMarre Carroll
p2204
aVDario Saric
p2205
aVRose
p2206
aVRose
p2207
aVButler
p2208
aVRose
p2209
aVRose
p2210
aVButler
p2211
aVPanini Prestige
p2212
aVMerle
p2213
aVNBA
p2214
aVRose
p2215
aVBulls bury Thunder
p2216
aVJeremy Lamb
p2217
aVJeremy Lin
p2218
aVDerrick Rose
p2219
aVSteve Kerr
p2220
aVHayward
p2221
aVDamian Lillard
p2222
aVStephen Curry
p2223
aVNBA
p2224
aVNBA
p2225
aVNBA
p2226
aVNBA
p2227
aVClippers PG Chris Paul
p2228
aVRose
p2229
aVRose
p2230
aVMel Daniels
p2231
aVNBA
p2232
aVGerald Green
p2233
aVPatrick Beverley
p2234
aVrout of Grizzlies
p2235
aVDwyane Wade
p2236
aVWin Butler
p2237
aVCrazy Stat
p2238
aVBrandon Jennings
p2239
aVMagic
p2240
aVVucevic
p2241
aVRose
p2242
aVHOOPS STEPHEN CURRY
p2243
aVC 's Address Early-Game Woes
p2244
aVNBA
p2245
aVBoston
p2246
aVTrey
p2247
aVAl Jefferson
p2248
aVMorris
p2249
aVStephen Curry
p2250
aVNBA star Curry
p2251
aVTrey
p2252
aVHOOPS STEPHEN CURRY GOLD
p2253
aVAl Jefferson
p2254
aVRose
p2255
aV#Adidas Green
p2256
aVPanini Draft
p2257
aVDeron Williams Illinois
p2258
aVSteph Curry
p2259
aVRose
p2260
aVRose
p2261
aVRose
p2262
aVOkafor
p2263
aVRose
p2264
aVHARRISON BARNES
p2265
aVTim Duncan NBA
p2266
aVNBA
p2267
aVLamar Odom
p2268
aVShaqtin
p2269
aVGrant
p2270
aVGerald Green
p2271
aVDwyane Wade
p2272
aVNBA
p2273
aVDuncan
p2274
aVRick Carlisle
p2275
aVStephen Curry Co
p2276
aVKobe Bryant
p2277
aVSteph Curry
p2278
aVNBA
p2279
aVRose
p2280
aVBulls
p2281
aVRose
p2282
aVButler
p2283
aVKevi
p2284
aVRose
p2285
aVRose
p2286
aVButler
p2287
aVKevi
p2288
aVunflattering Yelp review
p2289
aVRose
p2290
aVRose
p2291
aVKevi
p2292
aVRose
p2293
aVRose
p2294
aVButler
p2295
aVKevi
p2296
aVDwyane Wade
p2297
aVVintage Rose
p2298
aVDerrick Rose
p2299
aVNBA
p2300
aVVintage Rose
p2301
aVDerrick Rose
p2302
aV#ESPN Griz
p2303
aVKenny
p2304
aVKobe Bryant
p2305
aVKenny
p2306
aVGerald Green
p2307
aVNBA
p2308
aVRichie
p2309
aVLillard
p2310
aVPortland
p2311
aVBradley Beal
p2312
aVNBA
p2313
aVMerle
p2314
aVNBA
p2315
aVBart Simpson
p2316
asVother
p2317
(lp2318
VDorothy Bland
p2319
aVDallas Morning News
p2320
aVDorothy Bland
p2321
aVDallas Morning News
p2322
aVDallas Morning News
p2323
aVCJ McCollum shines
p2324
aVDario Saric
p2325
aVSTEPHEN CURRY GOLDEN STATE WARRIORS 2015 NBA MVP Bobblehead
p2326
aVWestchester Knicks
p2327
aVCoaching Staff
p2328
aVKings at Suns
p2329
aVThe SBTV NATION YouTube Channel
p2330
aVNikola Vucevic
p2331
aVMiami Herald
p2332
aVNBA
p2333
aVOKC
p2334
aVMorning News USA
p2335
aVNBA News
p2336
aVMorning News USA
p2337
aVInternet
p2338
aVNBA
p2339
aVJacket XXL
p2340
aVNuggets vs Warriors
p2341
aVNBA League Pass
p2342
aVNBA Keeper league
p2343
aVLakers-Nets Preview
p2344
aVNBA Khandwa
p2345
aVNBA
p2346
aVNBA Capsules
p2347
aVLebron 12 " Instinct
p2348
aVNBA Power
p2349
aVNBA
p2350
aVNBA
p2351
aVNBA Capsules
p2352
aVNew York Times
p2353
aVKyle Terada-USA
p2354
aVNBA TV
p2355
aVNBC4 Washington
p2356
aVLarge Reebok
p2357
aVJordan Clarkson
p2358
aVSam Dekker
p2359
aVSam D
p2360
aVIndianapolis Star
p2361
aVOKC Shoots Too Many ' Hero
p2362
aVDamian Lillard
p2363
aVNBA
p2364
aVDetroit Free Press
p2365
aVCharlotte Observer
p2366
aVNBA MVP
p2367
aVlifts
p2368
aVNBA
p2369
aVNBA
p2370
aVYouth XL
p2371
aVNBA 2K16 PACK OPENING
p2372
aVNBA
p2373
aVNBA
p2374
aVganan Heat y Hornets
p2375
aVganan Heat y Hornets
p2376
aVNBA Star Derrick Rose 1
p2377
aVNBA Draft
p2378
aVLA Lakers
p2379
aVWarriors edge Clippers
p2380
aVNBA Trade
p2381
aVNBA History
p2382
aVEpic Fails
p2383
aVEpic Fails
p2384
aVNBA
p2385
aVNBA
p2386
aVNBA
p2387
aVNBA Trade
p2388
aVBoston Celtics 2008 #NBA Champions
p2389
aVNBA
p2390
aVSIGNUP BONUS
p2391
aVJeremy Lin Stats
p2392
aVSleep Train Arena
p2393
aVD'Angelo Russell
p2394
aVNBA
p2395
aVNBA
p2396
aVNBA
p2397
aVNBA
p2398
aVNBA
p2399
aVNBA
p2400
aVNBA
p2401
aVNBA
p2402
aVNBA
p2403
aVNBA
p2404
aVNBA
p2405
aVNBA
p2406
aVNBA
p2407
aVPurdue University Basketball Court Rug
p2408
aV5-0 Raptors
p2409
aVMARCUS SMART 2014-15 Immaculate ROOKIE RPA Patch On Card Auto 3 Gold Celtics
p2410
aVDaily Fantasy Basketball 2015
p2411
aVCongrats RJ Hunter
p2412
aVNHL NFL MLB
p2413
aVNBA
p2414
aV#175 Rockets
p2415
aVNational Basketball Association
p2416
aVNBA Live 15
p2417
aVWashington Post
p2418
aVWashington Post
p2419
aVFox Boston
p2420
aVWashington Post
p2421
aVFox Boston
p2422
aVWashington Post
p2423
aVFox Boston
p2424
aVWashington Post
p2425
aVFox Boston
p2426
aVWashington Post
p2427
aVSports News : Griz
p2428
aVSports News : Griz
p2429
aVNBA
p2430
aVDIRK NOWITZKI Mavericks 2015-16 Hoops GOLD
p2431
aVNBA Trade
p2432
aVWomens NBA 4 Her Dallas
p2433
aVNBA Trade
p2434
aVNBA Trade
p2435
aV#Bryant Gold City Classic Large Men
p2436
aV#Bryant Panini #NBA Hoops . Select
p2437
aVNBA Trade
p2438
aVNBA Trade
p2439
aVNBA Trade
p2440
aVNBA Trade
p2441
aVNBA Trade
p2442
aVNBA Trade
p2443
aVNBA Trade
p2444
aVNBA Vintage
p2445
aVTNT TV NBA Pro Basketball Sports Betting Matchup
p2446
aVNBA MVP
p2447
aVNBA Trade
p2448
aVNBA Trade
p2449
aVNBA Trade
p2450
aVNHL NFL MLB
p2451
aVNBA
p2452
aVNBA Southeast Division Report
p2453
aVYouTube NBA
p2454
aVCavs-Knicks
p2455
aVLex Steele
p2456
aVNBA Capsules
p2457
aVNew York Times
p2458
aVNFL &amp; NBA Team Stiletto
p2459
aVNHL NFL MLB
p2460
aVNBA
p2461
aVNBA Premium TV
p2462
aVYahoo Sports
p2463
aVNBA
p2464
aVNBA
p2465
aVBradley Beal
p2466
aVOddsmakers
p2467
aVOreo Custom 10
p2468
aVGrizzlies-Trail Blazers Preview
p2469
aVSnapchat
p2470
aVNBA
p2471
aVNBA
p2472
aVNot Substance
p2473
aVNew York Times
p2474
aVNot Substance
p2475
aVNew York Times
p2476
aVNew York Times
p2477
aVNerlens Noel
p2478
aVNBA
p2479
aVJoel Embiid part of Sixers
p2480
aVNBA Draft Combine
p2481
aVNBA
p2482
aVNew York Times
p2483
aVNew York Times
p2484
aVNew York Times
p2485
aVNew York Times
p2486
aVNew York Times
p2487
aVNew York Times
p2488
aVNew York Times
p2489
aVNot Substance
p2490
aVNew York Times
p2491
aVNot Substance
p2492
aVNew York Times
p2493
aVNew York Times
p2494
aVNBA Trade
p2495
aVNBA
p2496
aVNBA TV
p2497
aVNBA 2K16 Xbox
p2498
aVCollege Caleb
p2499
aVNBA Golden State Warriors Mens French Terry
p2500
aVEast Finals
p2501
aVNBA Fan Signs
p2502
aVHall of Fame
p2503
aVESPN
p2504
aVPregame Notes | Wolves . Heat
p2505
aVPacers-Pistons Preview
p2506
aVNBA roundup
p2507
aVLarry Malik
p2508
aVNba
p2509
aVNBA
p2510
aVNBA
p2511
aVBulls bury Thunder
p2512
aVBulls bury Thunder
p2513
aVBulls bury Thunder
p2514
aV#Dallas Mavericks
p2515
aVMilwaukee #Bucks #NBA 2015-16 Preview
p2516
aVNBA
p2517
aVMens New Orleans
p2518
aVWhite Color
p2519
aVDion Waiters
p2520
aVDion Waiters
p2521
aVNational TV
p2522
aVThunder 98x104 Bulls
p2523
aVHeat 96x84 Wolves
p2524
aVNBA
p2525
aVNBA Post-Draft Power Rankings
p2526
aV16yo Kobe
p2527
aVBulls bury Thunder
p2528
aVBulls bury Thunder
p2529
aVNBA
p2530
aVBulls News Rose
p2531
aVBulls bury Thunder
p2532
aVBulls bury Thunder
p2533
aVUD MVP #RussellWestbrook ROOKIE
p2534
aVblast Sixers
p2535
aVBradley Beal
p2536
aVNHL
p2537
aVNBA
p2538
aVDWIGHT HOWARD Ruby Parallel AUTO Patch
p2539
aVUSA Basketball Snub
p2540
aVMinneapolis Star Tribune
p2541
aVOKC
p2542
aVChina 's Checkbook
p2543
aVNew York Times
p2544
aVNBA
p2545
aVNational Basketball Association
p2546
aVNBA
p2547
aVChina 's Checkbook
p2548
aVNew York Times
p2549
aVNew York Times
p2550
aVChina 's Checkbook
p2551
aVNew York Times
p2552
aVChina 's Checkbook
p2553
aVNew York Times
p2554
aVChina 's Checkbook
p2555
aVNew York Times
p2556
aVNBA
p2557
aVTNT
p2558
aVSanfrancisco
p2559
aVGospel Herald
p2560
aVESPN
p2561
aV2014-15 National
p2562
aVNBA Business
p2563
aVBiggest Basketball Festival-
p2564
aVMLB
p2565
aVnon-marquee
p2566
aVNBA
p2567
aVNBA
p2568
aVNBA
p2569
aVNBA
p2570
aVSteele Bones Bela Moretti
p2571
aVEurosport
p2572
aVShaqtin
p2573
aVNBA
p2574
aVBrixton Topcats Basketball Club
p2575
aVSports Jersey Guide
p2576
aVNFL NHL MLB NBA Jersey
p2577
aVESPN
p2578
aV2014-15 National
p2579
aVXbox One 500GB Console
p2580
aVNBA
p2581
aVVintage Rose pumps up Bulls
p2582
aVfanta NBA
p2583
aVGriffin Updates
p2584
aVUSA Basketball Snub
p2585
aVNike Zoom Lebron 9 Elite Custom Florida Gators Mache
p2586
aVNBA Kicks
p2587
aVNBA Kicks
p2588
aVNBA
p2589
aVLeague Pass
p2590
aVNBA Basketball Wandkalender
p2591
aVHeat downs Timberwolves
p2592
aVThe Rosherun
p2593
aVBulls bury Thunder
p2594
aVNBA
p2595
aVBulls bury Thunder
p2596
aVIndianapolis Star
p2597
aVSkin Diamond
p2598
aVYo Sports
p2599
aVNHL
p2600
aVYo Sports
p2601
aVNBA
p2602
aVNHL
p2603
aVMLB
p2604
aVNBA Update
p2605
aVNBA Update
p2606
aVNBA
p2607
aVFaried
p2608
aVNBA History
p2609
aVFournier Magic
p2610
aVwinless Pelicans
p2611
aVPrinceton Chin
p2612
aVDTN Japan
p2613
aVNBA
p2614
aVhttps: News Griz
p2615
aVJapan News Paper- Rose
p2616
aVShaqtin
p2617
aVcoach Mavericks
p2618
aVNBA
p2619
aVNBA
p2620
aVPrinceton Low
p2621
aVPrinceton Low
p2622
aVNBA
p2623
aVZ-Bo
p2624
aVNBA
p2625
aVNBA Update
p2626
asVtvshow
p2627
(lp2628
VDorothy Bland
p2629
aV5 Rose
p2630
aVInside The NBA
p2631
aVNBA Keeper League
p2632
aVDeviantArt
p2633
aVganan Heat y Hornets
p2634
aVNBA Championship
p2635
aVInside the NBA
p2636
aVInside the NBA
p2637
aVInside The NBA
p2638
aVFox Boston
p2639
aVNBA Finals
p2640
aVInside the NBA
p2641
aVNBA Action
p2642
aVNBA Action : Timeout
p2643
aVNBA
p2644
aVDion Waiters
p2645
aVInside The NBA
p2646
aVNBA Locker Code
p2647
aVOKC
p2648
aVInside the NBA
p2649
aVInside the NBA
p2650
aVNBA News
p2651
aVInside the NBA
p2652
aVInside the NBA
p2653
aVNBA Locker Code
p2654
aVInside The Nba
p2655
aVNBA Locker Code
p2656
aVYahoo Sports
p2657
aVThunder
p2658
aVInside The NBA
p2659
aVInside The NBA
p2660
asVgeo
p2661
(lp2662
VButler
p2663
aVVine
p2664
aVHayward
p2665
aVDenver
p2666
aVTrade
p2667
aVArizona
p2668
aVCanal
p2669
aVVirginia
p2670
aVNBC4 Washington
p2671
aVVirginia
p2672
aVVirginia
p2673
aVNBC4 Washington
p2674
aVVirginia
p2675
aVVirginia
p2676
aVVirginia
p2677
aVCarlisle
p2678
aVTrade
p2679
aVTrade
p2680
aVMinnesota
p2681
aVParsons
p2682
aVJapan
p2683
aVSierra Leone
p2684
aVPortland
p2685
aVEpic Fails
p2686
aVTrade
p2687
aVMemphis
p2688
aVPortland
p2689
aVMaxxie Maddson
p2690
aVSacramento
p2691
aVBrowns
p2692
aVTrade
p2693
aVTrade
p2694
aVTrade
p2695
aVTrade
p2696
aVTrade
p2697
aVTrade
p2698
aVOklahoma
p2699
aVMorris
p2700
aVOKC
p2701
aVMemphis
p2702
aVPortland
p2703
aVchicago
p2704
aVVine
p2705
aVMemphis
p2706
aVPortland
p2707
aVSouth east Asia
p2708
aVDAL
p2709
aVNBA Trade
p2710
aVjersey
p2711
aVDamian Lillard
p2712
aVSF
p2713
aVHA
p2714
aVLondon
p2715
aVMemphis
p2716
aVSyria
p2717
aVSyria
p2718
aVSyria
p2719
aVSyria
p2720
aVSyria
p2721
aVSyria
p2722
aVSyria
p2723
aVSyria
p2724
aVSyria
p2725
aVSyria
p2726
aVSyria
p2727
aVSyria
p2728
aVSyria
p2729
aVNot Substance
p2730
aVNot Substance
p2731
aVChicago
p2732
aVUS$400m
p2733
aVL.A.
p2734
aVNew Orleans
p2735
aVIndiana
p2736
aVSacramento
p2737
aVNotre Dame
p2738
aVNYC
p2739
aVAmerica
p2740
aVIndiana
p2741
aVButler
p2742
aVNew York
p2743
aVHayward
p2744
aVBoston
p2745
aVChicago
p2746
aVMinnesota
p2747
aVDETROIT
p2748
aVArizona
p2749
aVDF
p2750
aVButler
p2751
aVOrlando
p2752
aVArizona
p2753
aVButler
p2754
aV@finessepapi
p2755
aVGUIDE
p2756
aVGala
p2757
aVDALLAS
p2758
aVCleveland
p2759
aVAtlanta
p2760
aVNew Orleans
p2761
aVLouisville
p2762
aVHayward
p2763
aVJefferson
p2764
aVLondon
p2765
aVmemphis
p2766
aVJefferson
p2767
aVTaiwan
p2768
aVHayward
p2769
aVTaiwan
p2770
aVTaiwan
p2771
aVTaiwan
p2772
aVTaiwan
p2773
aVTaiwan
p2774
aVGolden State
p2775
aVGolden State
p2776
aVGoa
p2777
aVCarlisle
p2778
aVLOS ANGELES
p2779
aVTurkey
p2780
aVChina
p2781
aVGolden State
p2782
aVL.A.
p2783
aVChicago
p2784
aVJapan
p2785
aVPortland
p2786
aVPortland
p2787
aVPortland
p2788
aVGoa
p2789
aVToronto
p2790
aVNEW YORK
p2791
aVNEW ORLEANS
p2792
aVHayward
p2793
aVAFP)
p2794
aVSleeved Jerseys
p2795
aVAFP)
p2796
aVButler
p2797
aVDenver
p2798
aVDenver
p2799
aVMiddleton
p2800
aVButler
p2801
aVChicago
p2802
aVChicago
p2803
aVMemphis
p2804
aVChicago
p2805
asVEVENT
p2806
(lp2807
Vcaught
p2808
aVwalking
p2809
aVcaught
p2810
aVwalking
p2811
aVcaught
p2812
aVwalking
p2813
aVguard
p2814
aVSacrifice
p2815
aVSave
p2816
aVlead @MiamiHEAT
p2817
aVvictory
p2818
aVranked
p2819
aVadd
p2820
aVranked
p2821
aVadd
p2822
aVwinnen
p2823
aVHoops
p2824
aVwatch
p2825
aVjoin
p2826
aVjoin
p2827
aVextreme rebuilding
p2828
aVbig win
p2829
aVstarted
p2830
aVroll
p2831
aVjump shot
p2832
aVsomete
p2833
aVReunite
p2834
aVplayers
p2835
aVstart
p2836
aV#LeBronJamesHates
p2837
aVRipped
p2838
aVGame
p2839
aVSchedule
p2840
aVanswering
p2841
aVSubscribe
p2842
aVCheck
p2843
aVStay
p2844
aVbone bruise
p2845
aVgame
p2846
aVspin
p2847
aVAccording
p2848
aVreceived
p2849
aVhonour
p2850
aVjob
p2851
aVUpdate
p2852
aVwin
p2853
aVwin
p2854
aVarriving
p2855
aVresembling
p2856
aVbig
p2857
aVwin
p2858
aVWearing
p2859
aVtaking
p2860
aVperformance
p2861
aVshaqtin
p2862
aVLose
p2863
aVpick up
p2864
aVdefeating
p2865
aVRemember
p2866
aVfirst win
p2867
aVloss
p2868
aVWearing
p2869
aVspin
p2870
aVWearing
p2871
aVWatch
p2872
aVwinning
p2873
aVliked
p2874
aVvideo
p2875
aVOffense
p2876
aVScore
p2877
aVBreak
p2878
aVincoming
p2879
aVWelcome
p2880
aVplanning
p2881
aVstarting
p2882
aVfilling
p2883
aVdam
p2884
aVcompletion
p2885
aVresettlement
p2886
aVLeave
p2887
aV#LeBronJamesHates
p2888
aVRipped
p2889
aVGame
p2890
aVloss
p2891
aVsee
p2892
aVearly grave
p2893
aVshow
p2894
aVcompared
p2895
aVresemble
p2896
aVAllowed
p2897
aVwin
p2898
aVspin
p2899
aVMorning
p2900
aVscoring
p2901
aVstealing
p2902
aVrecalls
p2903
aVstealing
p2904
aVrecalls
p2905
aVstealing
p2906
aVrecalls
p2907
aVGoes
p2908
aVstealing
p2909
aVrecalls
p2910
aVstealing
p2911
aVrecalls
p2912
aVstealing
p2913
aVrecalls
p2914
aVSearch
p2915
aVSearch
p2916
aVhates
p2917
aVRun
p2918
aVwent
p2919
aVwin
p2920
aVdelivered
p2921
aVsnap
p2922
aVstreaks
p2923
aVfind
p2924
aVshot
p2925
aVmade
p2926
aVcelebration
p2927
aVbeating shot
p2928
aVTrainer version
p2929
aVcome off
p2930
aVenjoy
p2931
aVpissed off
p2932
aVdrop
p2933
aVadded
p2934
aVGame
p2935
aVKilled
p2936
aVCar Crash
p2937
aVSchool
p2938
aVliked
p2939
aVvideo
p2940
aVKilled
p2941
aVCar Crash
p2942
aVSchool
p2943
aVKilled
p2944
aVCar Crash
p2945
aVSchool
p2946
aVcontinue
p2947
aVKilled
p2948
aVCar Crash
p2949
aVSchool
p2950
aVKilled
p2951
aVCar Crash
p2952
aVSchool
p2953
aVKilled
p2954
aVCar Crash
p2955
aVSchool
p2956
aVSign up
p2957
aVstudent
p2958
aVTrainer version
p2959
aVPreventing
p2960
aVpay
p2961
aVwatch
p2962
aVstrike led
p2963
aVcelebrates
p2964
aVUnlimited Money
p2965
aVfind
p2966
aVshot
p2967
aVmade
p2968
aVWin
p2969
aVwin
p2970
aVReunite
p2971
aVChallenge
p2972
aVliked
p2973
aVvideo
p2974
aVGame
p2975
aVBeat
p2976
aVboost
p2977
aVstruggling
p2978
aVrunning game
p2979
aVadded
p2980
aVHoops
p2981
aVwin
p2982
aVReunite
p2983
aVreality
p2984
aVcalls
p2985
aVexpected
p2986
aVpueden
p2987
aVpueden
p2988
aVappreciated
p2989
aVcheck out
p2990
aVlearn
p2991
aVWATCH
p2992
aVskills
p2993
aVtrounced
p2994
aVattacks
p2995
aVTrainer version
p2996
aVpueden
p2997
aVpueden
p2998
aVpueden
p2999
aVWatch
p3000
aVpueden
p3001
aVpueden
p3002
aVliked
p3003
aVvideo
p3004
aVpueden
p3005
aVpueden
p3006
aVpueden
p3007
aVliked
p3008
aVvideo
p3009
aVDISCARD
p3010
aVarriving
p3011
aVpueden
p3012
aVliked
p3013
aVvideo
p3014
aVROLL
p3015
aVpueden
p3016
aVshatter
p3017
aVpueden
p3018
aVpueden
p3019
aVpueden
p3020
aVlate charge
p3021
aVStrategy
p3022
aVDominate
p3023
aVmiffed
p3024
aVtilt
p3025
aVpueden
p3026
aVpueden
p3027
aVdeclared
p3028
aVpueden
p3029
aVpueden
p3030
aVpueden
p3031
aVpueden
p3032
aVpueden
p3033
aVWatch
p3034
aV2k16
p3035
aVadded
p3036
aVtrounced
p3037
aVattacks
p3038
aVChallenge
p3039
aVChallenge
p3040
aVreached
p3041
aVastonishing milestone
p3042
aVPrediction
p3043
aVfavorite video game
p3044
aVUpdate
p3045
aVplay
p3046
aVloss
p3047
aVLeave
p3048
aVWatching laughing
p3049
aVmissed out
p3050
aVputting
p3051
aVshow
p3052
aVjoined
p3053
aVaged
p3054
aVassaulted
p3055
aVjailed
p3056
aVbeat
p3057
aVlearned
p3058
aVTurning Out
p3059
aVSteal
p3060
aVAdvertising
p3061
aVgame
p3062
aVwin
p3063
aVworking
p3064
aVinvolved
p3065
aVpueden
p3066
aVLeave
p3067
aVLeave
p3068
aVLeave
p3069
aVLeave
p3070
aVdone
p3071
aVlaunch
p3072
aVLeave
p3073
aVLeave
p3074
aVbring
p3075
aVextend
p3076
aVlosing streak
p3077
aVshine
p3078
aVJoin
p3079
aVUpdate
p3080
aVmiffed
p3081
aVtilt
p3082
aVWatch
p3083
aVspinning
p3084
aVStarting
p3085
aVcatch
p3086
aVstarting
p3087
aVget on
p3088
aVrealize
p3089
aVFEEL
p3090
aVloss
p3091
aVTrainer version
p3092
aVrealize
p3093
aVfoul
p3094
aVdone
p3095
aVlaunch
p3096
aVcontinue
p3097
aVWinning
p3098
aVWATCH
p3099
aVspinning
p3100
aVshot
p3101
aVliked
p3102
aVvideo
p3103
aVimprove
p3104
aVTrending
p3105
aVVisit
p3106
aVbanned
p3107
aVnon
p3108
aVGame
p3109
aVmerge
p3110
aVconfrontation
p3111
aVthrow
p3112
aVcontrolled
p3113
aVReleased
p3114
aVLeave
p3115
aVteam
p3116
aVlooking for
p3117
aVtalk
p3118
aVTrainer version
p3119
aVlate charge
p3120
aVpost
p3121
aVschedule
p3122
aVshown
p3123
aVaction
p3124
aVReply
p3125
aVgenerous
p3126
aVviolence
p3127
aVpast questioned
p3128
aVgenerous
p3129
aVviolence
p3130
aVpast questioned
p3131
aVgenerous
p3132
aVviolence
p3133
aVpast questioned
p3134
aVgenerous
p3135
aVviolence
p3136
aVpast questioned
p3137
aVgenerous
p3138
aVviolence
p3139
aVpast questioned
p3140
aVgenerous
p3141
aVviolence
p3142
aVpast questioned
p3143
aVallowing
p3144
aVwrite
p3145
aVmiffed
p3146
aVmiffed
p3147
aVtilt
p3148
aVmiffed
p3149
aVtilt
p3150
aVmiffed
p3151
aVmiffed
p3152
aVtilt
p3153
aVCut
p3154
aVmiffed
p3155
aVtilt
p3156
aVgame
p3157
aVReward
p3158
aVmiffed
p3159
aVmiffed
p3160
aVtilt
p3161
aVmiffed
p3162
aVmiffed
p3163
aVbuy
p3164
aVliked
p3165
aVvideo
p3166
aVmiffed
p3167
aVmiffed
p3168
aVmiffed
p3169
aVmiffed
p3170
aVone shot
p3171
aVmiss
p3172
aVdeaths
p3173
aVagrees
p3174
aVdiggin
p3175
aVidol mj23
p3176
aVsurprising
p3177
aVExtend
p3178
aVbroken
p3179
aV#build
p3180
aVCop
p3181
aV#build
p3182
aVCop
p3183
aVstore
p3184
aVWatching
p3185
aVlooking for
p3186
aVtalk
p3187
aVCutting
p3188
aVTrending
p3189
aVstop
p3190
aVdestroying
p3191
aVmiffed
p3192
aVmiffed
p3193
aVtilt
p3194
aVmiffed
p3195
aVtilt
p3196
aVChanging
p3197
aVWinning
p3198
aVidol mj23
p3199
aVface off
p3200
aVCatch
p3201
aVgame
p3202
aVShock
p3203
aVRepresenting
p3204
aVwin
p3205
aVcomplete team effort
p3206
aVsurprising
p3207
aVsurge
p3208
aVwin
p3209
aVwatch
p3210
aVwin
p3211
aVmiffed
p3212
aVtilt
p3213
aVface off
p3214
aVCatch
p3215
aVgame
p3216
aVrun
p3217
aVShock
p3218
aVRepresenting
p3219
aVShock
p3220
aVRepresenting
p3221
aVShock
p3222
aVShock
p3223
aVWinning
p3224
aVShock
p3225
aVRepresenting
p3226
aVShock
p3227
aVShock
p3228
aVRepresenting
p3229
aVShock
p3230
aVbest
p3231
aVShock
p3232
aVRepresenting
p3233
aVShock
p3234
aVRepresenting
p3235
aVShock
p3236
aVRepresenting
p3237
aVShock
p3238
aVRepresenting
p3239
aVShock
p3240
aVRepresenting
p3241
aVShock
p3242
aVRepresenting
p3243
aVShock
p3244
aVRepresenting
p3245
aVShock
p3246
aVRepresenting
p3247
aVJOIN NOW
p3248
aVShock
p3249
aVRepresenting
p3250
aVuses
p3251
aVwent
p3252
aVlove
p3253
aVCUTE
p3254
aVstriking
p3255
aVgoes up
p3256
aVface off
p3257
aVCatch
p3258
aVgame
p3259
aVCUTE
p3260
aVstriking
p3261
aVneed
p3262
aVemail contact@
p3263
aVLooking
p3264
aVlooking for
p3265
aVemail contact@
p3266
aVbad
p3267
aVstart
p3268
aVliked
p3269
aVterrible shooting
p3270
aVmocked
p3271
aVBreaking News
p3272
aVBeat
p3273
aVreact
p3274
aVblowing out
p3275
aVentered
p3276
aVwin
p3277
aVtrip
p3278
aVfinal Game
p3279
aVwin
p3280
aVwin
p3281
aVCut
p3282
aVdestroying
p3283
aVshooting
p3284
aVset to
p3285
aVdestroying
p3286
aVwin
p3287
aVclass
p3288
aVBleeding
p3289
aVBleeding
p3290
aVbeat
p3291
aVJazz
p3292
aVspin
p3293
aVLove
p3294
aVlove
p3295
aVlimited
p3296
aVDM
p3297
aVDiscuss
p3298
aVwinless
p3299
aVplayed
p3300
aVwin
p3301
aVseason
p3302
aVfollow
p3303
aVlaughing
p3304
aVlook at
p3305
aVcalled
p3306
aVsomete
p3307
aVfall off
p3308
aVmaking
p3309
aVMove
p3310
aVmovement
p3311
aVpractice
p3312
aVlead @MiamiHEAT
p3313
aVvictory
p3314
aVBleeding
p3315
aVBleeding
p3316
aVdownload
p3317
aVpick up
p3318
aVdefeating
p3319
aVreturn
p3320
aVwin
p3321
aVseason
p3322
aVengagement
p3323
aVlift
p3324
aVlengthy journey
p3325
aVfound
p3326
aVhappy
p3327
aVtweet
p3328
aVfoul
p3329
aVjoin
p3330
aVwere
p3331
aVexclude blacks
p3332
aVcentralized
p3333
aVbreak
p3334
aVwork
p3335
aVMeet
p3336
aVbreak
p3337
aVwork
p3338
aVMeet
p3339
aVruin
p3340
aVRelax
p3341
aVwatch
p3342
aVagrees
p3343
aVliked
p3344
aVvideo
p3345
aVMeeting
p3346
aVMeeting
p3347
aVMeeting
p3348
aVBleeding
p3349
aVBleeding
p3350
aVrepresent
p3351
aVonstage
p3352
aVI'm up
p3353
aVVacation
p3354
aVentourage
p3355
aVmiffed
p3356
aVshooting
p3357
aVset to
p3358
aVruin
p3359
aVMeeting
p3360
aVMeeting
p3361
aVMeeting
p3362
aVMeeting
p3363
aVMeeting
p3364
aVMeeting
p3365
aVMeeting
p3366
aVMeeting
p3367
aVMeeting
p3368
aVMeeting
p3369
aVBleeding
p3370
aVChanging
p3371
aVWatch
p3372
aVshot
p3373
aVfoul
p3374
aVLeave
p3375
aVPassing out
p3376
aVmoved
p3377
aVrehab
p3378
aVailing
p3379
aVrecovering fast
p3380
aVlimited
p3381
aVDM
p3382
aVbreak out
p3383
aVslump
p3384
aVfootball
p3385
aVrunning game
p3386
aVstretch
p3387
aVmoved
p3388
aVrehab
p3389
aVailing
p3390
aVrecovering fast
p3391
aVliked
p3392
aVvideo
p3393
aVwin
p3394
aVshutting up
p3395
aVwatch season
p3396
aVstart
p3397
aVremain healthy
p3398
aVseeing
p3399
aVhappy
p3400
aVtweet
p3401
aV#LeBronJamesHates
p3402
aVRipped
p3403
aVGame
p3404
aVAmazing shot
p3405
aVseek
p3406
aVstart
p3407
aVPranking
p3408
aVclaims
p3409
aVbreakup
p3410
aVliked
p3411
aVloss
p3412
aVfoul
p3413
aVweak
p3414
aVbeat
p3415
aVusing
p3416
aVcool
p3417
aVpueden
p3418
aVexpects
p3419
aVlead
p3420
aVvictory ov
p3421
aVHeated
p3422
aVemail contact@
p3423
aVremain
p3424
aVWatch
p3425
aVspinning
p3426
aVstreaking
p3427
aVshows
p3428
aVBREAKING
p3429
aVcooking
p3430
aVknew
p3431
aVpick up
p3432
aVdefeating
p3433
aVpueden
p3434
aVmade
p3435
aVAssist
p3436
aVAssist
p3437
aVrecovers
p3438
aVdestroying
p3439
aVAssist
p3440
aVrecovers
p3441
aVMOVIE
p3442
aVWATCH
p3443
aVBleeding
p3444
aVBleeding
p3445
aVcast spell
p3446
aVMeet
p3447
aVsomete
p3448
aVlove
p3449
aVBasketball
p3450
aVContrast
p3451
aV-Bleacher Report-
p3452
aVhappy
p3453
aVtweet
p3454
aVCut
p3455
aVlook like
p3456
aVsigned up
p3457
aVhelp
p3458
aVupgraded
p3459
aVLawsuit
p3460
aVtakes
p3461
aVWATCH
p3462
aVsurprising
p3463
aVsurge
p3464
aVwin
p3465
aVhappy
p3466
aVtaking shot
p3467
aVClutch
p3468
aVheating up
p3469
aVwin
p3470
aVlead
p3471
aVjacked off
p3472
aVsign
p3473
aVliked
p3474
aVcook
p3475
aVcut
p3476
aVearn
p3477
aVshooter
p3478
aVShock
p3479
aVRepresenting
p3480
aVgot
p3481
aVadd
p3482
aVseason
p3483
aVControl
p3484
aVliked
p3485
aVvideo
p3486
aVwithstand
p3487
aVlimited
p3488
aVDM
p3489
aVwin
p3490
aVcomfortable
p3491
aVallowed
p3492
aVelite
p3493
aVlearned
p3494
aVstretch
p3495
aVStart
p3496
aVhonoring shooting
p3497
aVliked
p3498
aVvideo
p3499
aVGET
p3500
aVWATCH
p3501
aVReleased
p3502
aVcooked
p3503
aVfree time
p3504
aVturned
p3505
aVgame
p3506
aVrecord
p3507
aVliked
p3508
aVvideo
p3509
aVSKILL
p3510
aVbeen
p3511
aVstart
p3512
aVPlayed
p3513
aVplayed in
p3514
aVwin
p3515
aVtitle
p3516
aVgotta
p3517
aVsupposed
p3518
aVwin
p3519
aVjoin
p3520
aVshooting
p3521
aVset to
p3522
aVPlayed
p3523
aVplayed in
p3524
aVlate charge
p3525
aVPacks
p3526
aVgame
p3527
aVfilling
p3528
aVdam
p3529
aVcompletion
p3530
aVresettlement
p3531
aVWatch
p3532
aVspinning
p3533
aVpicks
p3534
aVAdd
p3535
aVlets
p3536
aVfoul
p3537
aVgot
p3538
aVdeaths
p3539
aVlead
p3540
aVrecovery
p3541
aVmade
p3542
aVseason
p3543
aVbeat
p3544
aVsell short
p3545
aVentered
p3546
aVwin
p3547
aVtrip
p3548
aVfinal Game
p3549
aVentered
p3550
aVwin
p3551
aVtrip
p3552
aVfinal Game
p3553
aVfoul
p3554
aVgame
p3555
aVlate charge
p3556
aVshift
p3557
aVfoul
p3558
aVlets
p3559
aVExcited
p3560
aVsneakers
p3561
aVkicks
p3562
aVteasing
p3563
aVranked
p3564
aVadd
p3565
aVranked
p3566
aVadd
p3567
aVWatch
p3568
aVspinning
p3569
aVgame
p3570
aVliked
p3571
aVvideo
p3572
aVplayer
p3573
aVrip
p3574
aVscrew
p3575
aVstarting
p3576
aVearned
p3577
aVWatching
p3578
aVrevert
p3579
aVkick game
p3580
aVupdated
p3581
aVTrending
p3582
aVVisit
p3583
aVleft
p3584
aVMeeting
p3585
aVpick up
p3586
aVdefeating
p3587
aVgame
p3588
aVperformance
p3589
aVMeeting
p3590
aVMeeting
p3591
aVteam
p3592
aVMeeting
p3593
aVMeeting
p3594
aVMeeting
p3595
aVsneakers
p3596
aVscored
p3597
aVhad 5,633 assists
p3598
aVmade
p3599
aVseason
p3600
aVput
p3601
aVplay
p3602
aVTrending
p3603
aVVisit
p3604
aVsee
p3605
aVGoes
p3606
aVreached
p3607
aVspin
p3608
aVgetting flak
p3609
aVnoticed
p3610
aVwork
p3611
aVliked
p3612
aVDefine
p3613
aVmade
p3614
aVseason
p3615
aVcontract extension
p3616
aVcoach
p3617
aVexperience
p3618
aVcome
p3619
aVearly season
p3620
aVGame Recap
p3621
aVmoved
p3622
aVrehab
p3623
aVailing
p3624
aVrecovering fast
p3625
aVmoved
p3626
aVrehab
p3627
aVailing
p3628
aVrecovering fast
p3629
aVRanking
p3630
aVmiffed
p3631
aVmiffed
p3632
aVtilt
p3633
aVdisliking
p3634
aVlate charge
p3635
aVextension
p3636
aVedits
p3637
aVshown
p3638
aVwish
p3639
aVV-League Computer Game
p3640
aVfoul
p3641
aVperformance
p3642
aVLIVE
p3643
aVperformance
p3644
aVspin
p3645
aVsomete
p3646
aVentered
p3647
aVwin
p3648
aVtrip
p3649
aVfinal Game
p3650
aVagreement
p3651
aVdeal
p3652
aVdating
p3653
aVform
p3654
aVstarting
p3655
aVsomete
p3656
aVliked
p3657
aVvideo
p3658
aVspot
p3659
aVwanted
p3660
aVPlaying
p3661
aVdunk
p3662
aVbreak up
p3663
aVlearned that
p3664
aVwin
p3665
aVWatch
p3666
aVlook at
p3667
aVlate charge
p3668
aVpreview
p3669
aVsearching
p3670
aVbuild
p3671
aVcontact
p3672
aVreport
p3673
aVcheat
p3674
aVarrest
p3675
aVsold
p3676
aVtravelling
p3677
aVgrabbed
p3678
aVedits
p3679
aVshown
p3680
aVmiffed
p3681
aVbasketball
p3682
aVbasketball
p3683
aVbasketball
p3684
aVbasketball
p3685
aV[
p3686
aVlate charge
p3687
aVheating up
p3688
aVBREAKING
p3689
aVscore
p3690
aVsearching
p3691
aVbuild
p3692
aVwatch season
p3693
aVstart
p3694
aVgot
p3695
aVEmployed
p3696
aVMade
p3697
aVrun
p3698
aVchoosing
p3699
aVplay
p3700
aVWON
p3701
aVPLAYING
p3702
aVJoin
p3703
aVlooking
p3704
aVestablish
p3705
aVremain
p3706
aVlate charge
p3707
aVslip
p3708
aVschedule
p3709
aVliked
p3710
aVvideo
p3711
aVComparison
p3712
aVdestroying
p3713
aVHeading
p3714
aVlead
p3715
aVLeave
p3716
aVlate charge
p3717
aVundefeated
p3718
aVarrival
p3719
aVTurning Out
p3720
aVBe a Steal
p3721
aVTurning Out
p3722
aVBe a Steal
p3723
aVTurning Out
p3724
aVBe a Steal
p3725
aVstirring
p3726
aVgoing
p3727
aVstyle
p3728
aVwin
p3729
aVwin
p3730
aVundefeated
p3731
aVarrival
p3732
aVjoin
p3733
aVextreme rebuilding
p3734
aVpick up
p3735
aVdefeating
p3736
aVcome out
p3737
aVWON
p3738
aVPLAYING
p3739
aVJoin
p3740
aVstretch
p3741
aVWON
p3742
aVPLAYING
p3743
aVJoin
p3744
aVenvironment
p3745
aVinteresting
p3746
aVNets
p3747
aVpart
p3748
aV#LeBronJamesHates
p3749
aVRipped
p3750
aVGame
p3751
aVfree agent
p3752
aVgame
p3753
aVcareer
p3754
aVreturn
p3755
aVpick up
p3756
aVdefeating
p3757
aVgame
p3758
aVcelebrates
p3759
aVscreaming
p3760
aVgrind down
p3761
aVshot
p3762
aVdepth
p3763
aVmeant
p3764
aVcomment
p3765
aVsomete
p3766
aVchunk
p3767
aVMen's,
p3768
aVMen's,
p3769
aVmade
p3770
aVseason
p3771
aVliked
p3772
aVrally
p3773
aVlate charge
p3774
aVliked
p3775
aVvideo
p3776
aVdestroying
p3777
aVProps
p3778
aVlead
p3779
aVshine
p3780
aVshooter
p3781
aVtexting
p3782
aVback at
p3783
aVblessed
p3784
aVperformance
p3785
aVlate charge
p3786
aVdestroying
p3787
aVgot
p3788
aVlead
p3789
aVliked
p3790
aVCUTE
p3791
aVstriking
p3792
aVlate charge
p3793
aVlate charge
p3794
aVslip
p3795
aVlate charge
p3796
aVdefeat
p3797
aVlate charge
p3798
aVdoing
p3799
aVliked
p3800
aVvideo
p3801
aVref
p3802
aVhate
p3803
aVmiffed
p3804
aVtilt
p3805
aVmiffed
p3806
aVmiffed
p3807
aVtilt
p3808
aVmiffed
p3809
aVtilt
p3810
aVmiffed
p3811
aVmiffed
p3812
aVtilt
p3813
aVmiffed
p3814
aVmiffed
p3815
aVtilt
p3816
aVtilt
p3817
aVlate charge
p3818
aVmiffed
p3819
aVtilt
p3820
aVscreaming
p3821
aVWatch
p3822
aVspinning
p3823
aVwin
p3824
aVcontract extension
p3825
aVseason
p3826
aVwin
p3827
aVmiffed
p3828
aVmiffed
p3829
aVtilt
p3830
aVmiffed
p3831
aVmiffed
p3832
aVtilt
p3833
aVmiffed
p3834
aVmiffed
p3835
aVmiffed
p3836
aVmiffed
p3837
aVtilt
p3838
aVmiffed
p3839
aVmiffed
p3840
aVmiffed
p3841
aVmiffed
p3842
aVtilt
p3843
aVchanging
p3844
aVspace
p3845
aVmiffed
p3846
aVmiffed
p3847
aVtilt
p3848
aVmiffed
p3849
aVmiffed
p3850
aVtilt
p3851
aVliked
p3852
aVmiffed
p3853
aVmiffed
p3854
aVtilt
p3855
aVmiffed
p3856
aVmiffed
p3857
aVtilt
p3858
aVmaking
p3859
aVseason
p3860
aVmiffed
p3861
aVmiffed
p3862
aVtilt
p3863
aVmiffed
p3864
aVmiffed
p3865
aVtilt
p3866
aVmiffed
p3867
aVmiffed
p3868
aVtilt
p3869
aVmiffed
p3870
aVmiffed
p3871
aVtilt
p3872
aVmiffed
p3873
aVmiffed
p3874
aVgrind down
p3875
aVshot
p3876
aVmiffed
p3877
aVmiffed
p3878
aVtilt
p3879
aVmiffed
p3880
aVmiffed
p3881
aVspin
p3882
aVmiffed
p3883
aVmiffed
p3884
aVtilt
p3885
aVmiffed
p3886
aVmiffed
p3887
aVtilt
p3888
aVpull
p3889
aVmiffed
p3890
aVmiffed
p3891
aVtilt
p3892
aVpull
p3893
aVmiffed
p3894
aVmiffed
p3895
aVtilt
p3896
aVtilt
p3897
aVmiffed
p3898
aVmiffed
p3899
aVtilt
p3900
aVmiffed
p3901
aVmiffed
p3902
aVtilt
p3903
aVwinnen
p3904
aVmiffed
p3905
aVmiffed
p3906
aVtilt
p3907
aVmiffed
p3908
aVmiffed
p3909
aVtilt
p3910
aVhope
p3911
aVseeing
p3912
aVwant to
p3913
aVdiscipline
p3914
aVliked
p3915
aVvideo
p3916
aVknown
p3917
aVscreaming
p3918
aVmiffed
p3919
aVmiffed
p3920
aVmiffed
p3921
aVmiffed
p3922
aVmiffed
p3923
aVmiffed
p3924
aVmiffed
p3925
aVmiffed
p3926
aVmiffed
p3927
aVtilt
p3928
aVday job
p3929
aVmiffed
p3930
aVmiffed
p3931
aVmiffed
p3932
aVmiffed
p3933
aVtilt
p3934
aVmiffed
p3935
aVmiffed
p3936
aVtilt
p3937
aVmiffed
p3938
aVmiffed
p3939
aVtilt
p3940
aVleads
p3941
aVmiffed
p3942
aVmiffed
p3943
aVtilt
p3944
aVmiffed
p3945
aVmiffed
p3946
aVtilt
p3947
aVVIDEO
p3948
aVjourney
p3949
aVmiffed
p3950
aVmiffed
p3951
aVtilt
p3952
aVWinning Percentage
p3953
aVmiffed
p3954
aVmiffed
p3955
aVtilt
p3956
aVmiffed
p3957
aVmiffed
p3958
aVtilt
p3959
aVlead
p3960
aVcomped
p3961
aVcareer
p3962
aVmiffed
p3963
aVmiffed
p3964
aVtilt
p3965
aVmiffed
p3966
aVmiffed
p3967
aVtilt
p3968
aVmiffed
p3969
aVmiffed
p3970
aVtilt
p3971
aVmiffed
p3972
aVmiffed
p3973
aVtilt
p3974
aVhead
p3975
as.