(dp0
Vproduct
p1
(lp2
VNBA
p3
aVBradley Beal
p4
aVNBA
p5
aVNBA
p6
aVNBA
p7
aVNBA
p8
aVDallas Mavericks L.A. Clippers
p9
aVNBA
p10
aVThe NBA
p11
aVNBA
p12
aVNBA
p13
aVNBA
p14
aVCleveland Cavaliers Bulls
p15
aVNBA
p16
aVThe NBA
p17
aVNBA
p18
aVNBA
p19
aVNBA
p20
aVL.A. Clippers
p21
aVThe NBA
p22
aVNBA Fantasy
p23
aVNBA
p24
aVNikola Vucevic
p25
aVNBA
p26
aVNBA
p27
aVNBA
p28
aVMario Hezonja
p29
aVNBA NBA 2K
p30
aVNBA
p31
aVNBA
p32
aVL.A. Clippers
p33
aVNBA
p34
aVNBA
p35
aVNBA
p36
aVNBA
p37
aVNBA
p38
aVNBA
p39
aVNBA
p40
aVRio Olympics
p41
aVNBA 2K
p42
aVJulius Randle
p43
aVElias Sports Bureau)
p44
aVNBA
p45
aVOSU
p46
aVNBA
p47
aVNBA MVP
p48
aVThe NBA
p49
aVNBA Fantasy team
p50
aVL.A. Clippers
p51
aVCavs GM David Griffin
p52
aVDetroit-
p53
aVNBA
p54
aVThe NBA
p55
aVNaismith Memorial Basketball Hall of Fame Class
p56
aVHall of Fame
p57
asVband
p58
(lp59
VNBA.com
p60
aVKristaps Porzingis
p61
aVKristaps Porzingis
p62
aVAssociation
p63
aVKristaps Porzingis
p64
aVWs
p65
aVFlamengo
p66
aVFlamengo
p67
aVNBA legends
p68
aVRio
p69
aVFan Appreciation Day
p70
aVGame 3
p71
aVMamba
p72
aVBosh
p73
aVELEVEN
p74
aVBOSH
p75
aVBig
p76
aVChampions
p77
aVThe Jet
p78
aVThe Jet
p79
aVThe Jet
p80
aVThe Jet
p81
aVChicago Bulls Day
p82
aVDream Team
p83
aVFame
p84
aVDivision
p85
asVmovie
p86
(lp87
VThe Association
p88
aVRing Night
p89
aVSLAM
p90
aVRedeemer
p91
aVSLAMS
p92
aVPVG
p93
aVTHE MANIMAL
p94
aVMetta World Peace
p95
aVTraining Camp
p96
aVNBA LEAGUE PASS
p97
aVNBA LEAGUE PASS
p98
aVBoard of Governors
p99
aVLA Lakers
p100
aVBig Fella
p101
aVGrind Memphis Grizzlies
p102
aVFame
p103
aVRed Carpet
p104
aVThunder Dan
p105
aVMidnight ET
p106
asVcompany
p107
(lp108
VNBA
p109
aVESPN
p110
aVHBO
p111
aVNBA
p112
aVNBA
p113
aVESPN
p114
aVNBA
p115
aVESPN
p116
aVESPN
p117
aVNBA
p118
aVNBA
p119
aVFacebook
p120
aVNBA
p121
aVNBA
p122
aVGiannis Antetokounmpo
p123
aVNBA
p124
aVNBA
p125
aVNBA
p126
aVYahoo
p127
aVNBA
p128
aVNBA
p129
aVNBA
p130
aVNBA
p131
aVAmerican Airlines
p132
aVNBA
p133
aVNBA
p134
aVNBA
p135
aVNBA
p136
aVNBA
p137
aVNBA
p138
aVNBA
p139
aVNBA
p140
aVNBA
p141
aVNBA
p142
aVFrance
p143
aVNBA
p144
aVFRANCE
p145
aVThe NBA
p146
aVNBA
p147
aVNBA
p148
aVNew York
p149
aVNBA
p150
aVNBA
p151
aVyoung Jazz
p152
aV-Isiah Thomas
p153
aVNBA
p154
aVEA SPORTS
p155
aVEA SPORTS
p156
aVEA SPORTS
p157
aVNBA
p158
asVfacility
p159
(lp160
VMONSTER SLAM
p161
aVVictor Oladipo
p162
aVBrooklyn Nets
p163
aVBuoniconti Fund Dinner
p164
aV#WNBAFinals Game 2
p165
aVNBA Italia
p166
aVGreat Wall
p167
aVMinnesota Timberwolves Camp
p168
aVEnshrinement Weekend
p169
aVNaismith Memorial Basketball Hall of Fame
p170
aVThe 1992 NBA All-Star
p171
aVBay Area
p172
aVCoach Pop
p173
aVNBA LEAGUE
p174
aVBrooklyn Nets
p175
aVNew York Knicks square
p176
aVTower Bridge
p177
aVEast Finals
p178
aVMagic-
p179
aVCommerce Hall
p180
aVHall of Famer
p181
aVHall of Famer
p182
aVHall of Fame
p183
aVNaismith Memorial Basketball Hall of Fame
p184
aVNaismith Memorial Basketball Hall of Fame
p185
aVNaismith Memorial Basketball Hall of Fame
p186
aVthe Hall of Fame
p187
asVsportsteam
p188
(lp189
VChicago Bulls
p190
aVOklahoma City
p191
aVSacramento Kings
p192
aVKings
p193
aVOklahoma City Thunder Bulls
p194
aVTrail Blazers
p195
aVGolden State Warriors
p196
aVToronto Raptors
p197
aVGolden State Warriors
p198
aVWashington Wizards
p199
aVGolden State Warriors
p200
aVL.A. Clippers
p201
aVCleveland Cavaliers
p202
aVNew York Knicks
p203
aVToronto Raptors
p204
aVOklahoma City Thunder
p205
aVWashington Wizards
p206
aVL.A. Clippers
p207
aVGolden State Warriors
p208
aVToronto Raptors
p209
aVToronto Raptors
p210
aVDallas Mavericks
p211
aVAtlanta Hawks Heat
p212
aVDenver Nuggets Lakers
p213
aVGolden State Warriors
p214
aVNBA History)
p215
aVDetroit Pistons
p216
aVGolden State Warriors
p217
aVNBA.com
p218
aVPhiladelphia 76ers
p219
aVGolden State Warriors
p220
aVNew York Knicks
p221
aVGolden State Warriors
p222
aVMinnesota Timberwolves
p223
aVPhoenix Suns
p224
aVOklahoma City
p225
aVNew York Knicks
p226
aVCleveland Cavaliers
p227
aVMiami Heat
p228
aVGolden State Warriors
p229
aVHouston Rockets
p230
aVPhoenix Suns
p231
aVNBA LEAGUE PASS
p232
aVthe Suns
p233
aVPhoenix Suns
p234
aVL.A. Clippers
p235
aVMemphis Grizzlies
p236
aVAtlanta Hawks
p237
aVL.A. Clippers
p238
aVNew York Knicks
p239
aVMinnesota Timberwolves
p240
aVAtlanta Hawks York Knicks
p241
aVCleveland Cavaliers
p242
aVPortland Trail Blazers
p243
aVSan Antonio Spurs
p244
aVChicago Bulls
p245
aVBrooklyn Nets
p246
aVLA Lakers
p247
aVMiami Heat
p248
aVGolden State Warriors
p249
aVWarriors
p250
aVSan Antonio Spurs City
p251
aVNBA LEAGUE PASS
p252
aVOklahoma City Thunder
p253
aVSan Antonio Spurs
p254
aVGolden State Warriors
p255
aVGolden State Warriors
p256
aVDetroit Pistons
p257
aVChicago Bulls
p258
aVGolden State Warriors
p259
aVGolden State Warriors
p260
aVGolden State Warriors
p261
aVChicago Bulls
p262
aVChicago Bulls
p263
aVCleveland Cavaliers
p264
aVChicago Bulls
p265
aVCleveland Cavaliers
p266
aVNew Orleans Pelicans State Warriors
p267
aVCleveland Cavaliers
p268
aVChicago Bulls
p269
aVNew Orleans Pelicans
p270
aVGolden State Warriors
p271
aVGolden State Warriors
p272
aVNBA
p273
aVToronto Raptors
p274
aVGolden State Warriors
p275
aVIndiana Pacers
p276
aVNBA LEAGUE
p277
aVMinnesota Timberwolves
p278
aVNew Orleans Pelicans
p279
aVGolden State Warriors
p280
aVOklahoma City Thunder
p281
aVNBA TV)
p282
aVPortland Trail Blazers
p283
aVMinnesota Timberwolves
p284
aVToronto Raptors
p285
aVNBA Canada Series
p286
aVGolden State Warriors
p287
aVOrlando Magic
p288
aVRegatas
p289
aVOklahoma City Thunder
p290
aVSan Antonio Spurs
p291
aVGolden State Warriors
p292
aVOrlando Magic
p293
aVLA Lakers
p294
aVCharlotte Hornets
p295
aVL.A. Clippers
p296
aVOrlando Magic
p297
aVFlamengo
p298
aVRegatas
p299
aVOrlando Magic
p300
aVGolden State Warriors
p301
aVLA Lakers
p302
aVL.A. Clippers
p303
aVOrlando Magic
p304
aVOrlando Magic
p305
aVGolden State Warriors
p306
aVLA Lakers
p307
aVL.A. Clippers
p308
aVSan Antonio Spurs
p309
aVBoston Celtics
p310
aVIndiana Pacers
p311
aVBoston Celtics
p312
aVCharlotte Hornets
p313
aVL.A. Clippers
p314
aVCharlotte Hornets
p315
aVL.A. Clippers
p316
aVL.A. Clippers
p317
aVCharlotte Hornets
p318
aVOrlando Magic
p319
aVIndiana Fever
p320
aVCharlotte Hornets
p321
aVToronto Raptors
p322
aVSacramento Kings
p323
aVLA Lakers
p324
aVL.A. Clippers
p325
aVHouston Rockets
p326
aVMinnesota Lynx
p327
aVCharlotte Hornets
p328
aVL.A. Clippers 106-94
p329
aVMinnesota Timberwolves
p330
aVNBA Canada Series
p331
aVL.A. Clippers
p332
aVCharlotte Hornets
p333
aVLA CLIPPERS
p334
aVCHARLOTTE HORNETS
p335
aVMinnesota Lynx
p336
aVMinnesota Lynx
p337
aVVICIOUS SLAM
p338
aVMinnesota Lynx
p339
aVSacramento Kings
p340
aVBoston Celtics
p341
aVToronto Raptors
p342
aVGolden State Warriors
p343
aVOklahoma City Thunder
p344
aVUtah Jazz
p345
aVBoston Celtics
p346
aVBoston Celtics
p347
aVBoston Celtics
p348
aVReal Madrid Baloncesto
p349
aVBoston Celtics
p350
aVReal Madrid Baloncesto
p351
aVOklahoma City Thunder
p352
aVIndiana Pacers
p353
aVCharlotte Hornets
p354
aVThe Celtics
p355
aVNew York Knicks legend
p356
aVKnicks
p357
aVL.A. Clippers Team Preview Show
p358
aVGolden State Warriors Team Preview
p359
aVAtlanta Hawks
p360
aVCleveland Cavaliers
p361
aVSacramento Kings
p362
aVPhoenix Suns
p363
aVHouston Rockets
p364
aVMinnesota Lynx
p365
aVIndiana Fever
p366
aVIndiana Fever
p367
aVMinnesota Lynx
p368
aVIndiana Fever
p369
aVBoston Celtics Olimpia Milano
p370
aVBoston Celtics
p371
aVCleveland Cavaliers
p372
aVBoston Celtics
p373
aVMiami Heat
p374
aVLA Lakers
p375
aVLA Lakers
p376
aVUtah Jazz
p377
aVIndiana Fever
p378
aVIndiana Pacers
p379
aVCHICAGO BULLS
p380
aVMemphis Grizzlies
p381
aVDenver Nuggets
p382
aVL.A. Clippers
p383
aVSan Antonio Spurs
p384
aVMilwaukee Bucks
p385
aVReal Camp
p386
aVReal Training Camp
p387
aVCleveland Cavaliers
p388
aVReal Training Camp
p389
aVMinnesota Timberwolves
p390
aVGolden State Warriors
p391
aVMilwaukee Bucks
p392
aVMinnesota Timberwolves
p393
aVAtlanta Hawks
p394
aVMinnesota Timberwolves
p395
aVOklahoma City Thunder
p396
aVHouston Rockets
p397
aVPortland Trail Blazers
p398
aVClippers
p399
aVSan Antonio Spurs
p400
aVLA Lakers
p401
aVOrlando Magic
p402
aVNBA LEAGUE PASS
p403
aVOklahoma City Thunder GM Sam Presti
p404
aVSan Antonio Spurs
p405
aVCleveland Cavaliers
p406
aVWashington Mystics
p407
aVNew York Liberty
p408
aVPhoenix Mercury
p409
aVSamsung USA Elena Delle Donne of the Official Chicago Sky
p410
aVNew Orleans Pelicans
p411
aVIndiana Pacers
p412
aVBoston Celtics
p413
aVCleveland Cavaliers
p414
aVKnicks
p415
aVGolden State Warriors
p416
aVL.A. Clippers
p417
aVToronto Raptors
p418
aVWashington Wizards
p419
aVAtlanta Hawks
p420
aVMiami Heat
p421
aVIndiana Pacers
p422
aVDetroit Pistons
p423
aVChicago Bulls
p424
aVCharlotte Hornets
p425
aVToronto Raptors
p426
aVDenver Nuggets
p427
aVthe Lakers
p428
aVDenver Nuggets
p429
aVLA Lakers
p430
aVDenver Nuggets
p431
aVLA Lakers
p432
aVAtlanta Hawks
p433
aVThe Hawks
p434
aVBoston Celtics
p435
aVAtlanta Hawks
p436
aVMiami Heat
p437
aVDenver Nuggets
p438
aVLA Lakers
p439
aVAtlanta Hawks
p440
aVMiami Heat
p441
aVMiami Heat
p442
aVMiami Heat
p443
aVBoston Celtics
p444
aVAtlanta Hawks
p445
aVMiami Heat
p446
aVMiami Heat
p447
aVBoston Celtics
p448
aVMiami Heat
p449
aVAtlanta Hawks
p450
aVMiami Heat Denver Nuggets
p451
aVLA Lakers
p452
aVHouston Rockets
p453
aVOklahoma City
p454
aVMiami Heat
p455
aVBoston Celtics
p456
aVAtlanta Hawks
p457
aVMiami Heat
p458
aVDenver Nuggets
p459
aVGolden State Warriors
p460
aVSan Antonio Spurs
p461
aVGolden State Warriors
p462
aVMemphis Grizzlies
p463
aVGolden State Warriors
p464
aVGolden State Warriors
p465
aVMemphis Grizzlies
p466
aVFestus Ezeli
p467
aVHouston Rockets
p468
aVSan Antonio Spurs
p469
aVHouston Rockets
p470
aVOklahoma City
p471
aVOklahoma City
p472
aVHouston Rockets
p473
aVHouston Rockets
p474
aVOklahoma City Thunder
p475
aVHouston Rockets
p476
aVMemphis Grizzlies
p477
aVGolden State Warriors
p478
aVWeekly Player Stats
p479
aVMilwaukee Bucks
p480
aVAtlanta Hawks
p481
aVMiami Heat
p482
aVDenver Nuggets
p483
aVLA Lakers
p484
aVNBA GameTime
p485
aVHouston Rockets
p486
aVOrlando Magic
p487
aVMiami Heat
p488
aVHouston Rockets
p489
aVToronto Raptors
p490
aVToronto Raptors
p491
aVMilwaukee Bucks
p492
aVToronto Raptors
p493
aVMilwaukee Bucks
p494
aVSan Antonio Spurs
p495
aVBoston Celtics
p496
aVAtlanta Hawks
p497
aVCharlotte Hornets
p498
aVL.A. Clippers
p499
aVKings
p500
aVPhoenix Suns
p501
aVTrail Blazers
p502
aVKings
p503
aVGolden State Warriors
p504
aVNew York Knicks
p505
aVL.A. Clippers
p506
aVSacramento Kings
p507
aVThe Clippers
p508
aVSacramento Kings
p509
aVL.A. Clippers 59
p510
aVGolden State Warriors
p511
aVGolden State Warriors
p512
aVGolden State Warriors
p513
aVGolden State Warriors
p514
aVOklahoma City Thunder
p515
aVOrlando Magic
p516
aVGolden State Warriors
p517
aVHouston Rockets
p518
aVDetroit Pistons
p519
aVChicago Bulls
p520
aVGolden State Warriors
p521
aVHouston Rockets
p522
aVAtlanta Hawks
p523
aVCharlotte Hornets
p524
aVDetroit Pistons
p525
aVOrlando Magic
p526
aVOklahoma City Thunder
p527
aVCleveland Cavaliers
p528
aVMiami Heat
p529
aVPhoenix Suns
p530
aVClippers and Mavericks
p531
aVL.A. Clippers
p532
aVAtlanta Hawks
p533
aVMemphis Grizzlies
p534
aVIndiana Pacers
p535
aVMemphis Grizzlies
p536
aVIndiana Pacers
p537
aVL.A. Clippers
p538
aVMemphis Grizzlies
p539
aVMemphis Grizzlies 112
p540
aVIndiana Pacers
p541
aVPortland Trail Blazers
p542
aVDetroit Pistons
p543
aVOklahoma City
p544
aVMinnesota Timberwolves
p545
aVLA Lakers
p546
aVOklahoma City Head Coach
p547
aVSan Antonio Spurs
p548
aVSan Antonio Spurs
p549
aVGolden State Warriors
p550
aVLA Lakers
p551
aVChicago Bulls . The President
p552
aVGolden State Warriors
p553
aVGolden State Warriors
p554
aVDetroit Pistons
p555
aVDetroit Pistons
p556
aVAtlanta Hawks
p557
aVDetroit Pistons
p558
aVAtlanta Hawks
p559
aVOklahoma City Thunder
p560
aVNBA stars
p561
aVGolden State Warriors
p562
aVGolden State Warriors
p563
aVNBA Championship
p564
aVL.A. Clippers
p565
aVRip Hamilton
p566
aVSpurs
p567
aVPhoenix Suns
p568
aVCleveland Cavaliers
p569
aVOrlando Magic
p570
aVDenver
p571
aVOklahoma City Thunder
p572
aVSan Antonio Spurs
p573
aVMinnesota Timberwolves
p574
aVPortland Trail Blazers
p575
aVLA Lakers
p576
aVDallas Mavericks
p577
aVCleveland Cavaliers
p578
aVPortland Trail Blazers
p579
aVMemphis Grizzlies
p580
aVUtah Jazz
p581
aVPortland Trail Blazers
p582
aVCleveland Cavaliers
p583
aVToronto Raptors
p584
aVPhiladelphia 76ers
p585
aVGolden State Warriors
p586
aVOrlando Magic
p587
aVNew York Knicks
p588
aVBoston Celtics
p589
aVBoston Celtics
p590
aVIndiana Pacers
p591
aVPacers
p592
aVyoung Boston Celtics
p593
aVOrlando Magic
p594
aVAtlanta Hawks
p595
aVAtlanta Hawks
p596
aVMilwaukee Bucks
p597
aVSacramento Kings
p598
aVAtlanta Hawks
p599
aVWashington Wizards
p600
aVSan Antonio Spurs
p601
aVAtlanta Hawks
p602
aVAtlanta Hawks
p603
aVNew Orleans Pelicans
p604
aVCharlotte Hornets
p605
aVMagic
p606
aVDenver Nuggets
p607
aVGolden State Warriors
p608
aVMilwaukee Bucks
p609
aVCleveland Cavaliers
p610
aVWashington Wizards
p611
aVMiami Heat
p612
aVHouston Rockets
p613
aVNew Orleans Pelicans
p614
aVChicago Bulls
p615
aVSan Antonio Spurs
p616
aVMavs
p617
aVDallas Mavericks
p618
aVCharlotte Hornets
p619
aVL.A. Clippers
p620
aVNBA Fantasy team
p621
aVHouston Rockets
p622
aVThunder
p623
aVLakers ? Team
p624
aVCleveland Cavaliers
p625
aVGolden State Warriors
p626
aVKings
p627
aVthe Spurs
p628
aVSan Antonio Spurs guard
p629
aVThe Spurs
p630
aVToronto Raptors
p631
aVChicago Bulls
p632
aVCharlotte Hornets
p633
aVBoston Celtics
p634
aVReal Madrid
p635
aVAtlanta Hawks
p636
aVCleveland Cavaliers
p637
aVGolden State Warriors
p638
aVGolden State Warriors
p639
aVDenver Nuggets
p640
aVL.A. Clippers
p641
aVMemphis Grizzlies Real Training Camp
p642
aVCleveland Cavaliers Real Training Camp
p643
aVMilwaukee Bucks
p644
aVCleveland Cavaliers
p645
aVMinnesota Timberwolves
p646
aVSan Antonio Spurs
p647
aVAtlanta Hawks
p648
aVCleveland Cavaliers
p649
aVGolden State Warriors
p650
aVChicago Bulls
p651
aVKnicks
p652
aVChicago Bulls
p653
aVChicago Bulls
p654
aVLA Lakers
p655
aVChicago Bulls
p656
aVChicago Bulls
p657
aVCavs
p658
aVT-Mac
p659
aVOrlando Magic
p660
aV14-year NBA
p661
aVHouston Rockets
p662
aVHouston Rockets
p663
aVThe Sideline
p664
aVHouston Rockets
p665
aVHouston Rockets
p666
aVBoston Celtics-
p667
aVOklahoma City Thunder
p668
aVHouston Rockets Day
p669
aVHouston Rockets
p670
aVLos Angeles Lakers
p671
aVDetroit Pistons
p672
aVChicago Bulls
p673
aVBoston Celtics
p674
aVChicago Bulls
p675
aVTimberwolves
p676
aVChicago Bulls
p677
aVOrlando Magic
p678
aVChicago Bulls
p679
aVMavericks
p680
aVCleveland Cavaliers
p681
aVPhoenix Suns
p682
aVGolden State Warriors-
p683
aVPhoenix Suns
p684
aVChicago Bulls
p685
aVPhoenix Suns
p686
aVThe Phoenix Suns
p687
aVSan Antonio Spurs
p688
aVPhoenix Suns
p689
aVNew Orleans Pelicans
p690
aVOklahoma City Thunder
p691
aVOklahoma City
p692
aVBlazers All-Star
p693
aVthe Cavs
p694
aVHouston Rockets
p695
aVChicago Bulls guard
p696
aVAtlanta Hawks
p697
aVIndiana Pacers
p698
aVBrooklyn Nets
p699
aVUtah Jazz
p700
aVMinnesota Timberwolves
p701
aVDetroit Pistons
p702
aVCharlotte Hornets
p703
aVCleveland Cavaliers
p704
asVNONE
p705
(lp706
VNew Orleans Pelicans guard
p707
aV2-time NBA champion Jo Jo White
p708
asVperson
p709
(lp710
VDerrick Rose
p711
aVRussell Westbrook
p712
aVDerrick Rose
p713
aVDwyane Wade
p714
aVGeorge Karl
p715
aVDerrick Rose
p716
aVRussell Westbrook
p717
aVTNT
p718
aVTNT
p719
aVNBA
p720
aVStephen Curry
p721
aVChris Paul
p722
aVBradley Beal
p723
aVStephen Curry
p724
aVHarrison Barnes
p725
aVLeBron James
p726
aVCarmelo Anthony
p727
aVJae Crowder
p728
aVDeMar DeRozan
p729
aVStephen Curry
p730
aVAndre Drummond
p731
aVKentavious Caldwell Pope
p732
aVFILTHY SLAM
p733
aVAndre Drummond
p734
aVKyle Lowry
p735
aVStephen Curry
p736
aVKareem Abdul-Jabbar
p737
aVNBA
p738
aVKAREEM
p739
aVStephen Curry Play Golf
p740
aVLeBron James
p741
aVStephen Curry
p742
aVJames Harden Russell Westbrook
p743
aVKevin Durant
p744
aVAndre Iguodala
p745
aVLeBron James
p746
aVLeBron James
p747
aVAndre Drummond
p748
aVStephen Curry
p749
aVRussell Westbrook
p750
aVRussell Westbrook
p751
aVKenneth Faried
p752
aVHarrison Barnes
p753
aVRussell Westbrook
p754
aVLaMarcus Aldridge
p755
aVNBA
p756
aVNBA
p757
aVAllen Iverson
p758
aVNBA
p759
aVStephen Curry
p760
aVBlake Griffin
p761
aVCarmelo Anthony
p762
aVSteve Nash
p763
aVStephen Curry
p764
aVDemi Lovato
p765
aVStephen Curry
p766
aVNBA
p767
aVKarl Anthony Towns
p768
aVSteve Nash
p769
aVRussell Westbrook
p770
aVRussell Westbrook
p771
aVLeBron James
p772
aVThe Black Falcon
p773
aVHarrison Barnes
p774
aVUltimate Nash Mixtape
p775
aVNBA
p776
aVNBA
p777
aVSteve Nash
p778
aVBlake Griffin
p779
aVKristaps Porzingis
p780
aVKarl Anthony Towns
p781
aVLeBron James
p782
aVNBA
p783
aVNBA
p784
aVC.J. McCollum
p785
aVRicky Rubio
p786
aVKobe
p787
aVKevin
p788
aVRussell Westbrook
p789
aVJimmy Butler
p790
aVKobe Bryant
p791
aVJustise Winslow
p792
aVStephen Curry
p793
aVKobe Bryant
p794
aVKevin Durant
p795
aVStephen Curry
p796
aVAndre Drummond
p797
aVStephen Curry
p798
aVStephen Curry
p799
aVStephen Curry
p800
aVTNT
p801
aVPau Gasol
p802
aVDerrick Rose
p803
aVNikola Mirotic
p804
aVLeBron James
p805
aVPresident Barack Obama
p806
aVTNT
p807
aVPresident Barack Obama
p808
aVAnthony Davis Stephen Curry
p809
aVNBA
p810
aVTNT
p811
aVNBA
p812
aVTNT
p813
aVNBA
p814
aVNBA General Manager 2016
p815
aVNBA
p816
aVFlip Saunders
p817
aVNBA
p818
aVOssie Schectman
p819
aVAnthony Davis
p820
aVNBA
p821
aVNBA
p822
aVDeMar DeRozan
p823
aVPaul George
p824
aVLang Whitaker
p825
aVSekou Smith
p826
aVNBA
p827
aVDeandre Jordan
p828
aVNBA
p829
aVDirk Nowitzki
p830
aVTim Duncan
p831
aVKobe Bryant
p832
aVKevin Garnett
p833
aVNBA
p834
aVAnthony Davis
p835
aVNBA Lang Whitaker
p836
aVNBA
p837
aVNBA
p838
aVNBA
p839
aVRussell Westbrook
p840
aVChris Paul
p841
aVPaul George SLAM
p842
aVNBA
p843
aVSeason Preview
p844
aVNBA
p845
aVRyan Kelly
p846
aVNBA
p847
aVNBA
p848
aVClube
p849
aVNBA
p850
aVNBA
p851
aVKevin Durant
p852
aVKawhi Leonard
p853
aVStephen Curry
p854
aVLarry Nance
p855
aVDwyane Wade
p856
aVTrevor Ariza
p857
aVLarry Nance
p858
aVMario Hezonja
p859
aVBrazil
p860
aVClube
p861
aVNBA Brasil
p862
aVNBA
p863
aVNBA
p864
aVNBA
p865
aVtitle Bill Russell
p866
aVVictor
p867
aVMuggsy Bogues
p868
aVNBA
p869
aVNBA
p870
aVKawhi Leonard
p871
aVAmir Johnson
p872
aVIsaiah Thomas
p873
aVMyles Turner
p874
aVNBA
p875
aVNBA
p876
aVLamar Odom
p877
aVNBA
p878
aVJeremy Lin
p879
aVAl Jefferson
p880
aVNicolas Batum
p881
aVChris Paul
p882
aVAaron Gordon
p883
aVFrank Kaminsky
p884
aVNBA
p885
aVPaul Pierce
p886
aVKyle Lowry
p887
aVCarmelo Anthony
p888
aVWillie Cauley-Stein
p889
aVAnthony Davis
p890
aVKobe Bryant
p891
aVNBA
p892
aVRoma
p893
aVJamal Crawford
p894
aVSam Dekker
p895
aVNBA
p896
aVNBA
p897
aVNBA
p898
aVMaya Moore
p899
aVNBA
p900
aVNBA
p901
aVKarl Anthony Towns
p902
aVMichael Jordan
p903
aVAdam Silver
p904
aVSteve Ballmer
p905
aVMichael Jordan
p906
aVNBA
p907
aVJamal Crawford
p908
aVICYMI
p909
aVMaya Moore
p910
aVKevin Durant
p911
aVLaMarcus Aldridge
p912
aVNBA
p913
aVMaya Moore
p914
aVRussell Westbrook
p915
aVNBA.com
p916
aVKevin Durant
p917
aVNBA
p918
aVRudy Gay
p919
aVKyle Lowry
p920
aVStephen Curry
p921
aVRookie Scottie Wilbekin
p922
aVRussell Westbrook
p923
aVMalone
p924
aVDavid Lee
p925
aVAvery Bradley
p926
aVDavid Lee
p927
aVTerry Rozier
p928
aVMadrid
p929
aVAvery Bradley
p930
aVTompkins
p931
aVSergio Rodriguez
p932
aVKevin Durant
p933
aVRichard Jefferson
p934
aVPaul George
p935
aVMilan
p936
aVLeBron James
p937
aVNBA
p938
aVTNT
p939
aVKareem Abdul-Jabbar
p940
aVMycroft Holmes
p941
aVLA Lakers
p942
aVJames Harden
p943
aVMaya Moore
p944
aVStephen Curry
p945
aVAnthony Davis
p946
aVJames Harden
p947
aVKobe Bryant
p948
aVMilan
p949
aVGerald Green
p950
aVKobe Bryant
p951
aVKobe Bryant
p952
aVBriann January
p953
aVNBA
p954
aVNBA
p955
aVPaul George
p956
aVNBA
p957
aVNBA
p958
aVNBA
p959
aVNBA
p960
aVDeandre Jordan
p961
aVNBA.com
p962
aVNBA
p963
aVNBA
p964
aVDavid West
p965
aVNBA
p966
aVNBA
p967
aVJason Kidd
p968
aVNBA
p969
aVNBA
p970
aVKarl Anthony Towns
p971
aVKarl
p972
aVNBA
p973
aVTy Lawson
p974
aVNBA
p975
aVNBA
p976
aVNBA
p977
aVNBA Deron Williams
p978
aVNBA
p979
aVNBA
p980
aVNBA
p981
aVAnthony Davis
p982
aVDamian Lillard
p983
aVNBA
p984
aVNBA
p985
aVSTEVE KERR
p986
aVNBA
p987
aVSpike Lee
p988
aVNBA
p989
aVNBA
p990
aVJames Harden
p991
aVLaMarcus Aldridge
p992
aVNBA
p993
aVVince Carter
p994
aVScottie Pippen
p995
aVScottie Pippen
p996
aVNBA
p997
aVSHAWN KEMP
p998
aVJason Richardson
p999
aVBlake Griffin
p1000
aVKevin Durant
p1001
aVNBA
p1002
aVNBA
p1003
aVNarrated
p1004
aVSpike Lee
p1005
aVStephen Curry
p1006
aVNBA
p1007
aVKawhi Leonard
p1008
aVNBA
p1009
aVBrittney Griner
p1010
aVPau Gasol
p1011
aVLeBron James
p1012
aVPau Gasol
p1013
aVJohn Wall
p1014
aVPau Gasol
p1015
aVNBA
p1016
aVPau Gasol
p1017
aVPau Gasol
p1018
aVNBA
p1019
aVPhil Jackson
p1020
aVMoses Malone
p1021
aVElena Delle Donne
p1022
aVFrance
p1023
aVAnthony Davis
p1024
aVNBA
p1025
aVNBA
p1026
aVNBA
p1027
aVMoses Malone
p1028
aVJared Greenberg
p1029
aVNBA
p1030
aVBig Al
p1031
aVCraig Sager
p1032
aVJared Greenberg
p1033
aVJae Crowder
p1034
aVStephen Curry
p1035
aVMagic Johnson
p1036
aVPaul George
p1037
aVStephen Curry
p1038
aVJabari Parker
p1039
aVBradley Beal
p1040
aVKenny Smith
p1041
aVStephen Curry
p1042
aVIsiah Thomas
p1043
aVStephen Curry
p1044
aVBradley Beal
p1045
aVKobe Bryant
p1046
aVJabari Parker
p1047
aVSekou Smith
p1048
aVStephen Curry
p1049
aVJeff Teague
p1050
aVStephen Curry
p1051
aVRodney Stuckey
p1052
aVJimmy Butler
p1053
aVICYMI
p1054
aVAndre Drummond
p1055
aVKenneth Faried
p1056
aVKobe
p1057
aVJulius Randle
p1058
aVFaried
p1059
aVKenneth Faried
p1060
aVAndre Drummond
p1061
aVJeff Teague
p1062
aVJeff Teague
p1063
aVWade
p1064
aVDwyane Wade
p1065
aVWade
p1066
aVLeBron James
p1067
aVNBA LEAGUE
p1068
aVJames Harden
p1069
aVKobe Bryant
p1070
aVLA Lakers
p1071
aVLeBron James
p1072
aVKing James
p1073
aVNBA
p1074
aVElias
p1075
aVTim Duncan John Stockton
p1076
aVNBA
p1077
aVDuncan
p1078
aVStephen Curry
p1079
aVStephen Curry
p1080
aVDraymond Green
p1081
aVJames Harden
p1082
aVTim Duncan
p1083
aVDuncan
p1084
aVJames Harden
p1085
aVKevin Durant
p1086
aVJames Harden
p1087
aVLeBron James
p1088
aVKing James
p1089
aVStephen Curry
p1090
aVHassan Whiteside
p1091
aVStephen Curry
p1092
aVJabari Parker
p1093
aVNBA
p1094
aVTim Duncan
p1095
aVManu Ginobili
p1096
aVTony Parker
p1097
aVHouston
p1098
aVKevin Durant
p1099
aVyoung Magic
p1100
aVStephen Curry
p1101
aVCurry
p1102
aVMJ
p1103
aVHassan Whiteside
p1104
aVCoach Dwane Casey
p1105
aVValanciunas
p1106
aVDeMar DeRozan
p1107
aVGreg Monroe
p1108
aVLaMarcus Aldridge
p1109
aVBlake Griffin
p1110
aVStephen Curry
p1111
aVEric Bledsoe
p1112
aVBrandon Knight
p1113
aVJamal Crawford
p1114
aVNBA
p1115
aVSteph Curry
p1116
aVCarmelo Anthony
p1117
aVBlake Griffin
p1118
aVDeandre Jordan
p1119
aVCarmelo Anthony
p1120
aVStephen Curry
p1121
aVDeMarcus Cousins
p1122
aVBlake Griffin
p1123
aVStephen Curry
p1124
aVStephen Curry
p1125
aVJrue HolidayHoliday
p1126
aVCraig Sager
p1127
aVAlvin Gentry
p1128
aVCraig Sager
p1129
aVKevin Durant
p1130
aVRussell Westbrook
p1131
aVCurry
p1132
aVSteve Nash
p1133
aVMVP Steve Nash
p1134
aVStephen Curry
p1135
aVKevin Durant
p1136
aVRussell Westbrook
p1137
aVJordan
p1138
aVPippen
p1139
aVKobe Bryant Shaquille O
p1140
aVNeal
p1141
aVNBA
p1142
aVAndre Drummond
p1143
aVLeBron James
p1144
aVKristaps Porzingis
p1145
aVSteve Nash
p1146
aVSteve Nash
p1147
aVJeff Teague
p1148
aVAl Horford
p1149
aVMarc Gasol
p1150
aVMarc Gasol
p1151
aVBlake Griffin
p1152
aVMarc Gasol
p1153
aVC.J. McCollum
p1154
aVAnthony Davis
p1155
aVNBA
p1156
aVLeBron James
p1157
aVNBA
p1158
aVKD
p1159
aVRicky Rubio
p1160
aVKobe Bryant
p1161
aVLob City
p1162
aVRuss
p1163
aVBilly Donovan
p1164
aVRussell Westbrook
p1165
aVKarl Anthony Towns
p1166
aVJustise Winslow
p1167
aVLaMarcus Aldridge
p1168
aVMVP
p1169
aVKevin Durant
p1170
aVRick Kamla
p1171
aVKobe Bryant
p1172
aVDwight Howard
p1173
aVJabari Parker
p1174
aVKobe Bryant
p1175
aVPresident Barack Obama
p1176
aVNBA
p1177
aVDavid Aldridge
p1178
aVNBA
p1179
aVStephen Curry
p1180
aVAndre Drummond
p1181
aVAtlanta
p1182
aVDerrick Rose
p1183
aVLeBron James
p1184
aVLou Williams
p1185
aVRick Carlisle
p1186
aVRick Kamla Flip Saunders
p1187
aVFlip Saunders
p1188
aVNBA
p1189
aVLang Whitaker
p1190
aVJahlil Okafor
p1191
aVPhilly
p1192
aVRick
p1193
aVLang
p1194
aVDoc
p1195
aVJared
p1196
aVNBA Commissioner Adam Silver
p1197
aVGregg Popovich
p1198
aVTyson Chandler
p1199
aVTristan Thompson
p1200
aVTobias Harris
p1201
aVVictor Oladipo
p1202
aVKunal Nayyar
p1203
aVRicky Rubio
p1204
aVKobe Bryant
p1205
aVGrant Hill
p1206
aVIsiah Thomas
p1207
aVIsiah Thomas
p1208
aVKevin Garnett
p1209
aVRyan Kelly
p1210
aVMVP
p1211
aVRyan Kelly
p1212
aVICYMI
p1213
aVKunal Nayyar
p1214
aVKunal Nayyar
p1215
aVBen Schwartz
p1216
aVMelo
p1217
aVNBA champs Draymond Green
p1218
aVHarrison Barnes
p1219
aVRick Fox
p1220
aVLang Whitaker
p1221
aVByron Scott
p1222
aVDavid Lee
p1223
aVMonta Ellis
p1224
aVPaul George
p1225
aVRio
p1226
aVPaul Millsap
p1227
aVJabari Parker
p1228
aVGreg Monroe
p1229
aVGiannis Antetokounmpo
p1230
aVLarry
p1231
aVPhife Dawg
p1232
aVBradley Beal
p1233
aVPhife Dawg
p1234
aVAnthony Davis
p1235
aVNBA
p1236
aVRick Fox
p1237
aVLang Whitaker
p1238
aVRussell Westbrook
p1239
aVKevin Durant
p1240
aVL.A. Clippers
p1241
aVNBA
p1242
aVWilt Chamberlain
p1243
aVBill Russell
p1244
aVIsiah Thomas
p1245
aVJohn Wall
p1246
aVBradley Beal
p1247
aVDwayne Wade
p1248
aVChris Bosh
p1249
aVL.A. Clippers
p1250
aVPaul Pierce
p1251
aVDoc Rivers
p1252
aVIsiah Thomas
p1253
aVJohn Schuhmann
p1254
aVNBA
p1255
aVLaMarcus Aldridge
p1256
aVWesley Matthews
p1257
aVDeron Williams
p1258
aVJeremy Lin
p1259
aVAnthony Davis
p1260
aVChicago
p1261
aVKD
p1262
aVKobe Bryant
p1263
aVD'Angelo Russell
p1264
aVCleveland
p1265
aVSteve Nash
p1266
aVAldridge
p1267
aVPaul Millsap
p1268
aVLeBron James
p1269
aVPaul George
p1270
aVNew-look Sacramento Kings
p1271
aVGrant
p1272
aVFacebook page
p1273
aVVince Cellini
p1274
aVMike Fratello
p1275
aVLeBron James
p1276
aVKD
p1277
aVKobe Bryant
p1278
aVAnthony Davis
p1279
aVPaul Millsap
p1280
aVLeBron James
p1281
aVLeBron James
p1282
aVTristan Thompson
p1283
aVScottie Pippen-
p1284
aVScottie Pippen
p1285
aVScottie Pippen
p1286
aVScottie Pippen
p1287
aVKD
p1288
aVNBA
p1289
aVScottie Pippen
p1290
aVScottie Pippen
p1291
aVRussell Westbrook
p1292
aVJason Richardson
p1293
aVJason Richardson
p1294
aVScottie Pippen
p1295
aVScottie Pippen
p1296
aVPippen
p1297
aVLaMarcus Aldridge
p1298
aVStephen Curry
p1299
aVRalph Sampson
p1300
aVSam Presti
p1301
aVKevin Durant
p1302
aVJohn Salmons
p1303
aVMichael Jordan
p1304
aVMichael Jordan
p1305
aVAnthony Bennett
p1306
aVScottie Pippen
p1307
aVMichael Jordan
p1308
aVMichael Jordan
p1309
aVDirk Nowitzki
p1310
aVLeBron James
p1311
aVSteve Nash
p1312
aVCharles Barkley
p1313
aVCharles Barkley
p1314
aVPau Gasol
p1315
aVSpain
p1316
aVThe Sideline
p1317
aVCharles Barkley
p1318
aVTyreke Evans
p1319
aVRasheed Wallace
p1320
aVKobe Bryant
p1321
aVBilly Donovan
p1322
aVDwyane Wade
p1323
aVPhil Jackson
p1324
aVPhil
p1325
aVJames Harden
p1326
aVElena Delle Donne
p1327
aVElgin Baylor
p1328
aVLeBron
p1329
aVAlley-oop
p1330
aVJason Terry
p1331
aVMoses Malone
p1332
aVNBA
p1333
aVLarry Brown
p1334
aVHall of Fame
p1335
aVJimmy Butler
p1336
aVChicago Bulls All-Star
p1337
aVHakeem Olajuwon Moses Malone
p1338
aVPaul George
p1339
aVSteve Aschburner
p1340
aVMoses Malone
p1341
aVNBA
p1342
aVMoses Malone
p1343
aVMoses Malone
p1344
aVNBA
p1345
aVMoses Malone
p1346
aVDikembe Mutombo
p1347
aVDikembe Mutombo
p1348
aVDavid Aldridge
p1349
aVFellow Hall of Famer Isiah Thomas
p1350
aVDikembe Mutombo
p1351
aVThe Glove
p1352
aVGary Payton
p1353
aVDavid Aldridge
p1354
aVDikembe Mutombo
p1355
aVTy Lawson
p1356
aVShaun Powell
p1357
aVLisa Leslie
p1358
aVDikembe Mutombo
p1359
aVSam Mitchell
p1360
aVFlip Saunders
p1361
aVSteve Smith NBA Dikembe Mutombo
p1362
aVSekou Smith
p1363
aVLang Whitaker
p1364
aVJohn Calipari
p1365
aVDikembe Mutombo
p1366
aVBen Wallace
p1367
aVBob Lanier
p1368
aVDetroit Pistons All-Star Ben Wallace
p1369
aVDikembe Mutombo
p1370
aVMichael Jordan
p1371
aVDan Majerle
p1372
aVMichael Jordan Dikembe Mutombo
p1373
aVMutombo
p1374
aVJohn Thompson
p1375
asVother
p1376
(lp1377
VNBA
p1378
aVNBA
p1379
aVL.A. Clippers
p1380
aVThe Starters
p1381
aVNBA History
p1382
aVNBA
p1383
aVESPN
p1384
aVNBA
p1385
aVESPN
p1386
aVNBA TV
p1387
aVNBA
p1388
aVKia Tip-Off Week 2015
p1389
aVNBA TV
p1390
aVThe NBA
p1391
aVPhoenix Suns Ring of Honor
p1392
aVHalloween Hoops
p1393
aVNBA TV
p1394
aVNBA TV
p1395
aVNBA TV
p1396
aVNBA
p1397
aVESPN
p1398
aVPhoenix Suns Ring of Honor
p1399
aVPhoenix
p1400
aVTNT
p1401
aVLA Lakers
p1402
aVESPN
p1403
aVNBA
p1404
aVESPN
p1405
aVKentavious Caldwell Pope
p1406
aVNBA
p1407
aVTNT
p1408
aVTNT
p1409
aVNBA
p1410
aVNBA Canada Series
p1411
aVNBA
p1412
aVTNT
p1413
aVMiami Heat Guard Tyler
p1414
aVyoung Philadelphia 76ers
p1415
aVJahlil Okafor
p1416
aVNBA LEAGUE PASS
p1417
aVLA Lakers
p1418
aVMONSTER SLAM
p1419
aVNikola Vucevic
p1420
aVCody Zeller
p1421
aVVictor Oladipo
p1422
aVNBA TV
p1423
aVNBA TV
p1424
aVNBA.com
p1425
aVWNBA
p1426
aVNBA WNBA
p1427
aVNBA TV
p1428
aVNBA TV
p1429
aVNBA
p1430
aVNBA NBA Italia
p1431
aVNBA
p1432
aV#WNBAFinals Game 4
p1433
aVWNBA
p1434
aVNBA
p1435
aVShenghzen
p1436
aVNBA TV
p1437
aVNBA TV
p1438
aVNBA TV
p1439
aVNBATV
p1440
aVL.A. Clippers
p1441
aVNBA
p1442
aV8pm ESPN2)
p1443
aVMadrid Baloncesto 111-96
p1444
aVNBA TV
p1445
aVIT4
p1446
aVNBA TV
p1447
aVNBA Fantasy
p1448
aVNBA TV
p1449
aVL.A. Clippers
p1450
aVNBA TV
p1451
aVNBA
p1452
aVD'Angelo Russell
p1453
aVNBA
p1454
aVESPN2
p1455
aVWNBA All-Access Recap of Game 1
p1456
aVNBA TV
p1457
aVNBA
p1458
aVNBA TV
p1459
aVNBA TV
p1460
aVNBA TV
p1461
aVL.A. Clippers
p1462
aVNBA
p1463
aVNBA TV
p1464
aVNBA
p1465
aVNBA
p1466
aVBrooklyn Nets Owner Mikhail Prokhorov
p1467
aVNBA TV
p1468
aVNBA TV
p1469
aVFacebook page
p1470
aVNBA LEAGUE PASS
p1471
aVNBA
p1472
aVNBA TV
p1473
aVNBA
p1474
aVNBA TV
p1475
aVNBA TV
p1476
aVNBA
p1477
aVNBA LEAGUE PASS
p1478
aVNBA NBA Coaches Association
p1479
aVNBA TV
p1480
aVNBA
p1481
aVNarrated
p1482
aVNBA
p1483
aVNBA TV
p1484
aVNBA
p1485
aVWNBA Playoffs
p1486
aVNBA
p1487
aVNBA FIBA
p1488
aVWNBA Playoffs
p1489
aVNBA TV
p1490
aVWNBA Defensive Player of the Year Brittney Griner
p1491
aVFIBA
p1492
aVNBA TV
p1493
aVNBA TV
p1494
aVNBA TV
p1495
aVNBA TV
p1496
aVNBA LEAGUE PASS
p1497
aVNBA
p1498
aVNBA
p1499
aVNBA TV
p1500
aVa Hall of Famer
p1501
aVNBA
p1502
aVDiesel 's Dunks
p1503
aVNBA TV
p1504
aVLA Lakers
p1505
aVNBA TV
p1506
aVEastern Conference
p1507
aVNBA TV
p1508
aVNBA TV
p1509
aVNBA TV
p1510
aVNBA LEAGUE
p1511
aVNBA TV
p1512
aVNBA TV
p1513
aVNBA
p1514
aVNBA
p1515
aVElias Sports
p1516
aVNBA TV
p1517
aVKristen Ledlow
p1518
aVNBA TV
p1519
aVNBA TV
p1520
aVPhoenix Suns Ring of Honor
p1521
aVNBA
p1522
aVPhoenix Suns Ring of Honor
p1523
aVNBA GameTime
p1524
aVNBA League Pass
p1525
aVNBA
p1526
aVPhoenix Suns Ring of Honor
p1527
aVNBA TV
p1528
aVNBA TV
p1529
aVD'Angelo Russell
p1530
aVDallas Mavericks Head Coach
p1531
aVNBA TV GameTime
p1532
aVNBA TV
p1533
aVNBA TV
p1534
aVNBA
p1535
aVWestern Conference
p1536
aVThe FanDuel Fantasy Tip-off
p1537
aVNBA TV Twitter
p1538
aVopen Eastern Conference ? Team
p1539
aVDevin Booker
p1540
aVIsiah
p1541
aVNBA League
p1542
aVUSA Basketball Men 's National Team
p1543
aVNBA TV
p1544
aVL.A. Clippers
p1545
aVNBA Championship
p1546
aVWestern Conference
p1547
aVNBA TV
p1548
aVNBA TV
p1549
aVTeam preview
p1550
aVNBA TV
p1551
aVNBA TV
p1552
aVNBA TV
p1553
aVNBA TV
p1554
aVNBA TV
p1555
aVNBA TV
p1556
aVNBA TV
p1557
aVNBA TV
p1558
aVBrooklyn Nets
p1559
aVTeam
p1560
aVNBA TV
p1561
aVNBA TV
p1562
aVSekou Smith
p1563
aVLA Lakers HC
p1564
aVNBA TV
p1565
aVNBA TV
p1566
aVNBA TV
p1567
aVNBA
p1568
aVNBA
p1569
aVNBA TV
p1570
aVNBA TV
p1571
aVNBA TV
p1572
aVSekou Smith
p1573
aVNBA TV
p1574
aVNBA TV
p1575
aVNBA TV
p1576
aVNBA TV
p1577
aVNBA TV
p1578
aVNBA TV
p1579
aVNBA TV
p1580
aVNBA TV
p1581
aVNBA TV
p1582
aVNBA TV
p1583
aVL.A. Clippers
p1584
aVNBA TV
p1585
aVJR Swish
p1586
aVNBA TV
p1587
aVNBA TV
p1588
aVNBA TV
p1589
aVNBA TV
p1590
aVCleveland Cavaliers Real Training Camp
p1591
aVNBA TV
p1592
aVFacebook page
p1593
aVNBA TV
p1594
aVNBA TV
p1595
aVChristmas Day
p1596
aVNBA TV
p1597
aVNBA TV
p1598
aVChristmas Day
p1599
aVNBA TV
p1600
aVNBA TV
p1601
aVMetta World Peace
p1602
aVNBA Finals-
p1603
aVNBA TV
p1604
aVCleveland Cavaliers-
p1605
aVNBA TV
p1606
aVNBA TV
p1607
aVNBA TV
p1608
aVNBA TV
p1609
aVNBA TV
p1610
aVNBA TV
p1611
aVNBA
p1612
aVNBA TV
p1613
aVNBA TV
p1614
aVNBA TV
p1615
aVClutch City
p1616
aVWestern Conference
p1617
aVNBA TV
p1618
aVNBA TV
p1619
aVUtah-
p1620
aVNBA TV
p1621
aVNBA TV
p1622
aVNBA TV
p1623
aVNBA TV
p1624
aVNBA TV
p1625
aVNBA TV
p1626
aVChristmas Day-
p1627
aVNBA TV
p1628
aVNBA TV
p1629
aVNBA TV
p1630
aVNBA TV
p1631
aVNBA TV
p1632
aVNBA TV
p1633
aVNBA TV
p1634
aVNBA TV
p1635
aVNBA TV
p1636
aVNBA TV
p1637
aVNBA TV
p1638
aVNBA TV
p1639
aVNBA TV
p1640
aVUSA Basketball
p1641
aVNBA TV
p1642
aVNBA TV
p1643
aVNBA TV
p1644
aVLakers Day
p1645
aVNBA TV
p1646
aVNBA Champion Toni Kukoc
p1647
aVWNBA MVP
p1648
aVNBA TV
p1649
aVNBA
p1650
aVHall of Fame
p1651
aVHall of Fame
p1652
aVNBA TV
p1653
aVNBA TV
p1654
aVHall of Fame
p1655
aVNBA TV
p1656
aVNBA TV
p1657
aVNBA TV
p1658
aVWNBA
p1659
aVNBA TV
p1660
aVNBA TV
p1661
aVGameTime
p1662
asVtvshow
p1663
(lp1664
VRing of Honor
p1665
aVRing of Honor
p1666
aVNBA Family
p1667
aVPress Conference
p1668
aVRookie Class
p1669
aVAndrew Wiggins
p1670
aVEl Classico
p1671
aVEA SPORTS NBA
p1672
aVRing of Honor
p1673
aVDream Team
p1674
aVOpen Court
p1675
aVOpen Court
p1676
aVNBA Finals 4
p1677
aVNBA Finals
p1678
aVNBA Finals
p1679
asVgeo
p1680
(lp1681
VMemphis
p1682
aVHouston
p1683
aVOrlando
p1684
aVSan Antonio
p1685
aVWashington
p1686
aVPhoenix
p1687
aVKristaps Porzingis
p1688
aVMinnesota
p1689
aVMinnesota
p1690
aVAtlanta
p1691
aVChicago
p1692
aVChina
p1693
aVMontreal
p1694
aVChina
p1695
aVPhoenix
p1696
aVMinnesota
p1697
aVSacramento
p1698
aVChicago
p1699
aVOttawa
p1700
aVRio De Janeiro
p1701
aVRio
p1702
aVHouston
p1703
aVChina
p1704
aVShanghai
p1705
aVBrazil
p1706
aVRio
p1707
aVRio
p1708
aVJaneiro
p1709
aVRio
p1710
aVRio
p1711
aVShanghai
p1712
aVChina
p1713
aVShenzhen
p1714
aVShanghai
p1715
aVShanghai
p1716
aVChina
p1717
aVShanghai
p1718
aVShanghai
p1719
aVSan Diego
p1720
aVNew Orleans
p1721
aVShenzhen
p1722
aVChina
p1723
aVShenzhen
p1724
aVChina
p1725
aVShenzhen
p1726
aVChina
p1727
aVShenzhen
p1728
aVBoston
p1729
aVPhiladelphia
p1730
aVStockton
p1731
aVNew York
p1732
aVMadrid
p1733
aVMadrid
p1734
aVMadrid
p1735
aVSpain
p1736
aVL.A.
p1737
aVShanghai
p1738
aVCincinnati
p1739
aVMilan
p1740
aVItaly
p1741
aVMilan
p1742
aVLake Como
p1743
aVNYC
p1744
aVHawaii
p1745
aVSanta Barbara
p1746
aVCA
p1747
aVMemphis
p1748
aVCHINA
p1749
aVChina
p1750
aVUniversity
p1751
aVWisconsin
p1752
aVMinneapolis
p1753
aVCompton
p1754
aVSPAIN
p1755
aVLITHUANIA
p1756
aVSPAIN
p1757
aVLITHUANIA
p1758
aVSPAIN
p1759
aVLITHUANIA
p1760
aVLITHUANIA SERBIA
p1761
aVSpain
p1762
aVSerbia
p1763
aVLithuania
p1764
aVPhoenix
p1765
aVSPAIN
p1766
aVSPAIN
p1767
aVJackson
p1768
aVSerbia
p1769
aVLithuania
p1770
aVSpain
p1771
aVChicago
p1772
aVOklahoma City
p1773
aVLos Angeles
p1774
aVLA
p1775
aVGolden State
p1776
aVCharlotte
p1777
aVWashington
p1778
aVWashington
p1779
aVNew Orleans
p1780
aVNew Orleans
p1781
aVNew Orleans
p1782
aVNew Orleans
p1783
aVLA Lakers
p1784
aVPhiladelphia
p1785
aVCalifornia
p1786
aVHamilton
p1787
aVWest Coast
p1788
aVLos Angeles
p1789
aVGolden State
p1790
aVVenice Beach
p1791
aVVenice Beach
p1792
aVVenice Beach
p1793
aVLondon
p1794
aVChina
p1795
aVChina
p1796
aVLexington
p1797
aVChina
p1798
aVSpain
p1799
aVPhiladelphia
p1800
aVAlert
p1801
aVRip City
p1802
aVClutch City
p1803
aVMiami Chamber
p1804
aVEast
p1805
aVRed Carpet
p1806
aVSpringfield
p1807
asVEVENT
p1808
(lp1809
Vlead
p1810
aVvictory
p1811
aVlooking
p1812
aVfresh start
p1813
aVseason
p1814
aVtrying
p1815
aVinstill
p1816
aVreturning
p1817
aVplayoffs
p1818
aVtime
p1819
aVCelebrate
p1820
aVFree
p1821
aVShipping
p1822
aVgot movement
p1823
aVheadline
p1824
aVlead
p1825
aVknock
p1826
aVmiss
p1827
aVYa
p1828
aVsit
p1829
aVstart
p1830
aVseason
p1831
aVrivalry
p1832
aVconsecutive
p1833
aVgame
p1834
aVput up
p1835
aVlead
p1836
aVstraight game
p1837
aVGONE OFF
p1838
aVdescribe
p1839
aVrun
p1840
aVjourney
p1841
aVMaking
p1842
aVWatch
p1843
aVlook back
p1844
aVscoring
p1845
aVleading up
p1846
aVwin
p1847
aVhit
p1848
aVlead
p1849
aVnod
p1850
aVBEST BENCH REACTION
p1851
aVseason
p1852
aVth career
p1853
aVdo
p1854
aVCongratulations
p1855
aVreach
p1856
aVphotos
p1857
aValbum
p1858
aVoffers
p1859
aVtune
p1860
aVheroics
p1861
aVseason
p1862
aVrolling
p1863
aVrecap
p1864
aVtears
p1865
aVlead
p1866
aVlead
p1867
aVleads
p1868
aVvictory
p1869
aVFire
p1870
aVCheck out
p1871
aVhoops action
p1872
aVhit
p1873
aVlead
p1874
aVlead
p1875
aVvictory
p1876
aVCheck out
p1877
aVJAM SESSION
p1878
aVWatch
p1879
aValbum
p1880
aVCatch
p1881
aVgame
p1882
aVvictory
p1883
aVsee
p1884
aVbelieve
p1885
aVlead
p1886
aVmakes
p1887
aVaction
p1888
aVset
p1889
aVhonor
p1890
aVpresent
p1891
aVschedule
p1892
aVcheck out
p1893
aVtips off
p1894
aVcelebrate
p1895
aVinducted
p1896
aVcount down
p1897
aVgrabs
p1898
aVlead
p1899
aVvictory
p1900
aVhome opener
p1901
aVdebut
p1902
aVlead
p1903
aVmic'd up
p1904
aVtips off
p1905
aVscore
p1906
aVhit
p1907
aVfloor
p1908
aVcareer-high
p1909
aVlead
p1910
aVvictory
p1911
aVlead Thunder
p1912
aVvictory
p1913
aVseason
p1914
aVNBA career
p1915
aVRemember
p1916
aVscorching performance
p1917
aVtalks
p1918
aVhighs
p1919
aVcareer
p1920
aVcheck out
p1921
aVunveil
p1922
aVPicking
p1923
aVleft
p1924
aVlast season
p1925
aVSlamming
p1926
aVseason
p1927
aVlead
p1928
aVvictory
p1929
aVlead
p1930
aVopening night win
p1931
aVsaid
p1932
aVstarts
p1933
aVtip off
p1934
aVregular season
p1935
aVpeep
p1936
aVpreseason
p1937
aVseason
p1938
aVPeep
p1939
aVpreseason
p1940
aVnew season
p1941
aVprove
p1942
aVhead
p1943
aVseason
p1944
aVbegun
p1945
aVfeatures
p1946
aVlook back
p1947
aVOpening Night
p1948
aVpreseason
p1949
aVtips off
p1950
aVlook into Training
p1951
aVWe're down
p1952
aVtips off
p1953
aVlook back
p1954
aVbreakout season
p1955
aVTest
p1956
aVskills
p1957
aVGame
p1958
aVSign
p1959
aVclass
p1960
aVlook into Training
p1961
aVheading
p1962
aVtips off
p1963
aVpreseason
p1964
aVtips off
p1965
aVmiss
p1966
aVstop
p1967
aVleave
p1968
aVtips off
p1969
aVbeginning
p1970
aVthrow
p1971
aVscored
p1972
aVthrow
p1973
aVscored
p1974
aVthrow
p1975
aVscored
p1976
aVthrow
p1977
aVscored
p1978
aVbackdoor
p1979
aV__________________
p1980
aVseason
p1981
aVWe're down
p1982
aVtips off
p1983
aVAccording to
p1984
aVseason
p1985
aVshake out
p1986
aVready
p1987
aVregular season
p1988
aVputs up
p1989
aVwin
p1990
aVmissed
p1991
aVmad
p1992
aVRated
p1993
aVWe're down
p1994
aVtips off
p1995
aVmeans
p1996
aVsee
p1997
aVtopics
p1998
aVsurfaced
p1999
aVstarts
p2000
aVAccording to
p2001
aVseason
p2002
aVshake out
p2003
aVdunk
p2004
aVhelps escape
p2005
aVrally
p2006
aVlook
p2007
aVWe're down
p2008
aVtips off
p2009
aVwear
p2010
aVring No
p2011
aVwrap up
p2012
aVtrip
p2013
aVvictory
p2014
aVWelcome to
p2015
aVVisit
p2016
aVlearn
p2017
aVshooting
p2018
aVwin
p2019
aVis right
p2020
aVpreparing
p2021
aVWatch
p2022
aVWe're down
p2023
aVtips off
p2024
aVplay
p2025
aVmiss
p2026
aVintroduces
p2027
aVShooting
p2028
aVrim
p2029
aVshows
p2030
aVhops
p2031
aVCheck out
p2032
aVgame
p2033
aVwin
p2034
aVhyped
p2035
aVFollow along
p2036
aVvisit
p2037
aVstarting
p2038
aVswell
p2039
aVcampaign
p2040
aVgoes
p2041
aVtake
p2042
aVRISE up
p2043
aVbreaks down
p2044
aVbottom
p2045
aVFollow along
p2046
aVTrip
p2047
aVvisit
p2048
aVpreseason action
p2049
aVimportant
p2050
aVis
p2051
aVupcoming season
p2052
aVlook back
p2053
aVfeaturing
p2054
aVcare
p2055
aVled
p2056
aVwrap up
p2057
aVtrip
p2058
aVwatch
p2059
aVlook at
p2060
aVtrip
p2061
aVhoops
p2062
aVcreative
p2063
aVGame
p2064
aVvictory
p2065
aVshow
p2066
aVstarting
p2067
aVswell
p2068
aVcampaign
p2069
aVJoin
p2070
aVwishing
p2071
aVBIRTHDAY
p2072
aVshooting
p2073
aVhanging out
p2074
aVtraining
p2075
aVgoes through
p2076
aVget ready
p2077
aVupcoming season
p2078
aVwalk
p2079
aVlook back
p2080
aVCatch
p2081
aVgrowth
p2082
aVbasketball
p2083
aVStay tuned
p2084
aVstreet
p2085
aVWATCH
p2086
aVlead
p2087
aVwin
p2088
aVCheck out
p2089
aVbreaks down
p2090
aVDominate
p2091
aVimprove
p2092
aVcheck out
p2093
aVlook at
p2094
aVmid-season form
p2095
aVvictory
p2096
aVCheck out
p2097
aVupcoming season
p2098
aVprepare
p2099
aVseason
p2100
aVgive
p2101
aVwin
p2102
aVseason
p2103
aVhonored
p2104
aVhelp
p2105
aVthrows
p2106
aVlimited
p2107
aVbreak
p2108
aVlead
p2109
aVcombined points
p2110
aVcoming up
p2111
aVbreakdown
p2112
aVshooting
p2113
aVquarter
p2114
aVtaking
p2115
aVtravel
p2116
aVFly
p2117
aVgame
p2118
aVpreseason action
p2119
aVplayed
p2120
aVlasted
p2121
aVlooking forward
p2122
aVseeing
p2123
aValbum
p2124
aVfirst season
p2125
aVlead
p2126
aVcontributed
p2127
aVcheck out
p2128
aVwon
p2129
aVtip off
p2130
aVteam flick
p2131
aVLaunch Party
p2132
aVlook into
p2133
aVdefending
p2134
aVprepare
p2135
aVseason
p2136
aVbreaks down
p2137
aVdraft
p2138
aVpreseason return
p2139
aVaction
p2140
aVgame
p2141
aVcleared
p2142
aVtakeoff
p2143
aVWe're down
p2144
aVtips off
p2145
aVGame
p2146
aVJoin
p2147
aVwishing
p2148
aVBIRTHDAY
p2149
aVlook
p2150
aVhard-working
p2151
aVprepare
p2152
aVupcoming season
p2153
aVtips off
p2154
aVget ready
p2155
aVseason
p2156
aVDominate
p2157
aVRanked
p2158
aVComing
p2159
aVlive
p2160
aVback on
p2161
aVquestion
p2162
aVupcoming season
p2163
aVset
p2164
aVreturn
p2165
aVback at
p2166
aVvisit
p2167
aVWe're down
p2168
aVtips off
p2169
aVlook
p2170
aVpractice
p2171
aVWatch
p2172
aVdefending
p2173
aVpractice
p2174
aVcontinue
p2175
aVStream up
p2176
aVbegins
p2177
aVComing
p2178
aVlive
p2179
aVCheck out
p2180
aVaction
p2181
aVrookie season
p2182
aVstart
p2183
aVjourney
p2184
aVJoin
p2185
aVwishing
p2186
aVBIRTHDAY
p2187
aVChoose
p2188
aVbroadcast
p2189
aVseason
p2190
aVgrowth
p2191
aVranging
p2192
aVresurgence
p2193
aVLook out
p2194
aVbulked up
p2195
aVpeep
p2196
aVrecap
p2197
aVseason
p2198
aVWe're down
p2199
aVtips off
p2200
aVLook out
p2201
aVJoin
p2202
aVwishing
p2203
aVBIRTHDAY
p2204
aVseason
p2205
aVBelieve
p2206
aVbrought
p2207
aVtop
p2208
aVcover athlete
p2209
aVWe're down
p2210
aVseason
p2211
aVBirthday
p2212
aVlook back
p2213
aVJoin
p2214
aVwishing
p2215
aVBIRTHDAY
p2216
aVWe're down
p2217
aVseason
p2218
aVThrowing
p2219
aVcount down
p2220
aVlook back
p2221
aVretired
p2222
aVmiss
p2223
aVlook back
p2224
aVcleared
p2225
aVsidelined
p2226
aVseason
p2227
aVeye
p2228
aVbounce back
p2229
aVWe're down
p2230
aVseason
p2231
aVlearn
p2232
aVcheck out
p2233
aVfootage
p2234
aVexpect
p2235
aVsidelined
p2236
aVseason
p2237
aVeye
p2238
aVbounce back
p2239
aVopening
p2240
aVscoring
p2241
aVblocking
p2242
aVshots
p2243
aVChoose
p2244
aVbroadcast
p2245
aVseason
p2246
aVwin
p2247
aVCheck out
p2248
aVlook back
p2249
aVreturn to
p2250
aVWe're down
p2251
aVseason
p2252
aVwin
p2253
aVLocked Up
p2254
aVDOUBLE
p2255
aVqualify
p2256
aVbasketball
p2257
aVparty
p2258
aVadvance
p2259
aVGame
p2260
aVlead
p2261
aVStream up
p2262
aVDubbed
p2263
aVbasketball
p2264
aVJoin
p2265
aVwishing
p2266
aVBIRTHDAY
p2267
aVwin
p2268
aVadvance
p2269
aVremember
p2270
aVCheck out
p2271
aVPresented
p2272
aVIncredible season
p2273
aVCatch
p2274
aVLIVE
p2275
aVwin
p2276
aVadvance
p2277
aVdelivered
p2278
aVCatch
p2279
aVLIVE
p2280
aVmiss
p2281
aVseason
p2282
aVlost
p2283
aVdefined
p2284
aVWatch
p2285
aVpass
p2286
aVentered
p2287
aVshooting
p2288
aVscoring
p2289
aVShot
p2290
aVmade
p2291
aVnamed
p2292
aVstop
p2293
aVgame
p2294
aVteam win
p2295
aVbeat
p2296
aVremain
p2297
aVfloor
p2298
aVrecovering
p2299
aVHear
p2300
aVsay
p2301
aVgame
p2302
aVtough bout
p2303
aVtalking
p2304
aVBring
p2305
aVdeveloped
p2306
aVclutch
p2307
aVhit
p2308
aVhad
p2309
aVstart out
p2310
aVoptimism
p2311
aVseason-ending injury
p2312
aVtalk
p2313
aVhot start
p2314
aVseason
p2315
aVstrong performance
p2316
aVgame
p2317
aVcoming up
p2318
aVput
p2319
aVhelped
p2320
aVseason
p2321
aVgiving up
p2322
aVpoints
p2323
aVfix
p2324
aVwin
p2325
aVtime
p2326
aVgame
p2327
aVwent off
p2328
aVleads
p2329
aVvictory
p2330
aVdropped
p2331
aVplay
p2332
aVgives
p2333
aVdunk
p2334
aVgame
p2335
aVfootwork
p2336
aVslam
p2337
aVstraight win
p2338
aVseason
p2339
aVwinner
p2340
aVdecided
p2341
aVupdated
p2342
aVtournament
p2343
aVwinner
p2344
aVwon
p2345
aVmove
p2346
aVseason
p2347
aVhead-to-head
p2348
aVscheduled
p2349
aVshown
p2350
aVcareer
p2351
aVget in
p2352
aVvote
p2353
aVseason
p2354
aVstarts
p2355
aVWin
p2356
aVdebate
p2357
aVSubmit
p2358
aVwatching
p2359
aVshow
p2360
aVRelive
p2361
aVseason
p2362
aVfree trial
p2363
aVhelp
p2364
aVencore
p2365
aVimpressed
p2366
aVbreaking
p2367
aVwin
p2368
aVback on
p2369
aVreach
p2370
aVcareer
p2371
aVwin
p2372
aVCheck out
p2373
aVvote on
p2374
aVmatchup using
p2375
aVscore
p2376
aVJoin
p2377
aVwishing
p2378
aVbirthday
p2379
aVwins
p2380
aVpoint night
p2381
aVlead
p2382
aVsums
p2383
aV8 points
p2384
aVled
p2385
aVseason
p2386
aVpassing
p2387
aVamassed
p2388
aVwins
p2389
aVReigning
p2390
aVmiss
p2391
aVplaying
p2392
aVreach
p2393
aVcareer points
p2394
aVplaying
p2395
aVanalyzes
p2396
aVseason success
p2397
aVbattle
p2398
aVdefending
p2399
aVleft
p2400
aVfree trial
p2401
aVSign up
p2402
aVvideo game
p2403
aVCheck out
p2404
aVseason
p2405
aVcleared
p2406
aVgame
p2407
aVrecovering
p2408
aVstarts
p2409
aVlook at
p2410
aVstart
p2411
aVlook back
p2412
aVtop
p2413
aVRecap
p2414
aVanalyzes
p2415
aVupdated
p2416
aVlose
p2417
aVseason
p2418
aVstarted
p2419
aVseason
p2420
aVbeen
p2421
aVfire
p2422
aVstart
p2423
aVseason
p2424
aVled
p2425
aVvictory
p2426
aVwin
p2427
aVmove
p2428
aV8 points
p2429
aVshowing
p2430
aVposted
p2431
aVbeat
p2432
aVscored
p2433
aVleading
p2434
aVvictory
p2435
aVscore
p2436
aVlead
p2437
aVHear
p2438
aVsay to
p2439
aVtaking
p2440
aVlead
p2441
aVwin
p2442
aVfree throw
p2443
aVfree throw
p2444
aVmove
p2445
aVwin
p2446
aVcooking
p2447
aVHear
p2448
aVsay to
p2449
aVbig night
p2450
aVlooking forward
p2451
aVHear
p2452
aVsay
p2453
aVbehind-the-scenes
p2454
aVseason premieres
p2455
aVinducted
p2456
aVWatch
p2457
aVspeech
p2458
aVinduction
p2459
aVtake care
p2460
aVscore
p2461
aVescape
p2462
aVfinish
p2463
aVTrick
p2464
aVTweet
p2465
aVStart
p2466
aVfree trial
p2467
aVwatch
p2468
aVprepared
p2469
aVinducted
p2470
aVcheck out
p2471
aVmatchup
p2472
aVled
p2473
aVwin
p2474
aVled
p2475
aVwin
p2476
aVgrabbed
p2477
aVlooking forward
p2478
aVgetting
p2479
aVled
p2480
aVvictory
p2481
aV#TBT
p2482
aVair today
p2483
aVincluding
p2484
aVpart
p2485
aVopening night win
p2486
aVhelp
p2487
aVspoil
p2488
aVcongrats
p2489
aVrookie Head
p2490
aVgot
p2491
aVwin
p2492
aVcoaching win
p2493
aVBringing
p2494
aVmeaning to
p2495
aVCongratulations
p2496
aVseason
p2497
aVwin
p2498
aVset
p2499
aVtip off
p2500
aVunderstand
p2501
aVprocess
p2502
aVpractice
p2503
aVWelcome back
p2504
aVdebuts
p2505
aVlooking forward
p2506
aVseeing
p2507
aVupdate
p2508
aVgo
p2509
aVleft
p2510
aVlast season
p2511
aVfinished
p2512
aVmakes
p2513
aVseason
p2514
aVWatch
p2515
aVOpening Night
p2516
aVceremony
p2517
aVcounting
p2518
aVgo
p2519
aVWatch
p2520
aVBirthday
p2521
aVlow
p2522
aVbegins
p2523
aVtuning
p2524
aVseason preview
p2525
aVOpening Night
p2526
aVpassing
p2527
aVseason
p2528
aVJoin
p2529
aVwishing
p2530
aVOpening Night
p2531
aVcontinues
p2532
aVtitle run
p2533
aVRelive
p2534
aVmagical run
p2535
aVRemembering
p2536
aVpassed
p2537
aVJoin
p2538
aVwishing
p2539
aVBirthday
p2540
aVprepare
p2541
aVadvice
p2542
aVset
p2543
aVtaking
p2544
aVtweeting
p2545
aVshow
p2546
aVarrived
p2547
aVexpect
p2548
aVrevamped
p2549
aVTrip
p2550
aVwere up
p2551
aVfigure out
p2552
aVplay
p2553
aVgame
p2554
aVOpening Night
p2555
aVmedia
p2556
aVsign up
p2557
aVplay
p2558
aVpush
p2559
aVplayoffs
p2560
aVrevamped
p2561
aVTrip
p2562
aVseason
p2563
aVOpening Night
p2564
aVcontinues
p2565
aVOpening Night
p2566
aVdeal
p2567
aV's in
p2568
aVseason
p2569
aVcaught up
p2570
aVmade
p2571
aVpanel
p2572
aVmade
p2573
aVNBA season
p2574
aVplayed
p2575
aVpoised
p2576
aVcoming up
p2577
aVfinish
p2578
aVlead
p2579
aVwon
p2580
aVsurvey
p2581
aVwin
p2582
aVgame
p2583
aVstart
p2584
aVpicked
p2585
aVtake home
p2586
aVstart
p2587
aVfranchise
p2588
aVwinning dunk
p2589
aVComing up
p2590
aVopens up
p2591
aVhappen
p2592
aVseason
p2593
aVpreseason
p2594
aVpreview
p2595
aVcome out
p2596
aValbum
p2597
aValbum
p2598
aValbum
p2599
aValbum
p2600
aVWelcome back
p2601
aVtrip
p2602
aVtrip
p2603
aValbum
p2604
aVtrip
p2605
aVtrip
p2606
aVGame
p2607
aVGame
p2608
aVbasketball
p2609
aVtake on
p2610
aVexpect
p2611
aVpreview
p2612
aVanswering
p2613
aValbum
p2614
aVmatchup
p2615
aVbuild
p2616
aVlast season
p2617
aVplayoff appearance
p2618
aVlead
p2619
aVplayoffs
p2620
aVwatch
p2621
aVenjoying
p2622
aVseasons
p2623
aVfollow
p2624
aVre-signing
p2625
aVemergence
p2626
aVexcited
p2627
aVTune
p2628
aVtake
p2629
aVstep
p2630
aVTune
p2631
aVseason
p2632
aVdraft
p2633
aVfantasy game
p2634
aVthinks
p2635
aVimprove
p2636
aVfocused
p2637
aVHear
p2638
aVstopped
p2639
aVtrip
p2640
aVfranchise-record season
p2641
aVSeason
p2642
aVTune
p2643
aVbiceps
p2644
aVepisode
p2645
aVtalking
p2646
aVStay tuned
p2647
aVinterviews
p2648
aVBirthday
p2649
aVsick pass
p2650
aVCheck out
p2651
aVdiscuss
p2652
aVstarting
p2653
aVseen
p2654
aVwatch
p2655
aVdebate
p2656
aVTune
p2657
aVFind out
p2658
aVweighs in
p2659
aVcoming up
p2660
aVCheck out
p2661
aVpremiere
p2662
aVbirthday
p2663
aVFind out
p2664
aVepisode
p2665
aVbreaks down
p2666
aVshot
p2667
aVsee
p2668
aVWatch
p2669
aVacquired
p2670
aVform after
p2671
aVplayoff push
p2672
aVTune
p2673
aVstarting
p2674
aVarena
p2675
aVhometown
p2676
aVcollege town
p2677
aVplay
p2678
aVdeep playoff run
p2679
aVimpact
p2680
aVmake
p2681
aVcoming up
p2682
aVcoming up
p2683
aV's in
p2684
aVshow
p2685
aVcoming up
p2686
aVrole
p2687
aVcover
p2688
aVdebut
p2689
aVplay
p2690
aVplay
p2691
aVplayoff run
p2692
aVweigh in
p2693
aVWatch
p2694
aVpreview show
p2695
aVhear
p2696
aVweigh in
p2697
aVpreseason matchup
p2698
aVsee
p2699
aVrepeat
p2700
aVbreak
p2701
aVshow
p2702
aVstrong offseason
p2703
aVdeep
p2704
aVweigh
p2705
aVWatch
p2706
aVWeigh
p2707
aVrated
p2708
aVwin
p2709
aVcall
p2710
aVBest move
p2711
aVrecap
p2712
aVcall confidence
p2713
aVbelieve
p2714
aVBirthday
p2715
aVcontinues
p2716
aVmatchup . Jazz
p2717
aVpreseason game
p2718
aVlive
p2719
aVchanged
p2720
aVCrossed up
p2721
aVchanged
p2722
aVnoon
p2723
aVWatch
p2724
aVstreaming LIVE
p2725
aVusing
p2726
aVlive streaming
p2727
aVusing
p2728
aVanswer
p2729
aVdiscuss
p2730
aVwait
p2731
aVrelive
p2732
aVbuild on
p2733
aVplayoff appearance
p2734
aVseason
p2735
aVCheck out
p2736
aVbirthday
p2737
aVsay
p2738
aVseason
p2739
aVlose
p2740
aVwatching
p2741
aVreturn
p2742
aVlosing
p2743
aVBirthday
p2744
aVgame- tune
p2745
aVleads
p2746
aVGame
p2747
aVcatch
p2748
aVCheck out
p2749
aVcomeback
p2750
aVGame
p2751
aVCheck out
p2752
aVelectrifying
p2753
aVheading
p2754
aVjog down
p2755
aVreflects on
p2756
aVSlam Dunk
p2757
aVlegendary dunk contest
p2758
aVepisode
p2759
aVannounced
p2760
aVdunk contest
p2761
aVfinishes
p2762
aVcareer
p2763
aVBirthday
p2764
aVairing
p2765
aVlife
p2766
aVcatch
p2767
aVStay
p2768
aVshows
p2769
aVjudge
p2770
aVscouting report
p2771
aVsee more
p2772
aVflying
p2773
aVleads
p2774
aVGame
p2775
aVwin
p2776
aVcleared
p2777
aVtraining
p2778
aVGame
p2779
aVtune
p2780
aVBirthday
p2781
aVturns
p2782
aVhelps
p2783
aVgame winner
p2784
aValbum
p2785
aValbum
p2786
aVtune
p2787
aValbum
p2788
aValbum
p2789
aVwin
p2790
aValbum
p2791
aValbum
p2792
aValbum
p2793
aValbum
p2794
aVGame
p2795
aValbum
p2796
aValbum
p2797
aVrecord
p2798
aVtune
p2799
aVNBA season
p2800
aVlast season
p2801
aVled
p2802
aVroller
p2803
aVseason
p2804
aVended
p2805
aVtune
p2806
aVAgree
p2807
aVGame
p2808
aVtune
p2809
aVback atop
p2810
aVpoised
p2811
aVTune
p2812
aVre-air
p2813
aVBirthday
p2814
aVJoin
p2815
aVwishing
p2816
aVBirthday
p2817
aVcoach
p2818
aVsystem
p2819
aVBirthday
p2820
aVturns
p2821
aVbirthday
p2822
aVhealthy
p2823
aVNBA season
p2824
aVinducted
p2825
aVBirthday
p2826
aVBirthday
p2827
aVTune to
p2828
aVcoaching
p2829
aVgoing
p2830
aVhunted
p2831
aVlast season
p2832
aVwinning
p2833
aVBirthday
p2834
aVturns
p2835
aVWatch
p2836
aVreturn season
p2837
aVbuild
p2838
aVsurprise season
p2839
aVBirthday
p2840
aVturns
p2841
aVBirthday
p2842
aVBirthday
p2843
aVturns
p2844
aVrise
p2845
aVnarrow
p2846
aVshared
p2847
aValbum
p2848
aVBirthday
p2849
aVback at
p2850
aVbirthday
p2851
aVBirthday
p2852
aVsuccess
p2853
aVcontend
p2854
aVimpact
p2855
aVrespond
p2856
aVsudden loss
p2857
aVpassed
p2858
aVCongrats
p2859
aVclass
p2860
aVpick
p2861
aVcaught up
p2862
aVWatch
p2863
aVcoming up
p2864
aVstarts
p2865
aVMeet
p2866
aVcoming up
p2867
aVinducted
p2868
aVLook back
p2869
aVyesterday
p2870
aVupcoming season
p2871
aVCheck out
p2872
aVdraft night
p2873
aVinducted
p2874
aVRead
p2875
aVREAD
p2876
aVmatched
p2877
aVserve
p2878
aVinterim head
p2879
aVinducted
p2880
aVled
p2881
aVclass
p2882
aVbounce back
p2883
aVseason
p2884
aVled
p2885
aVbirthday
p2886
aVBirthday
p2887
aVBirthday
p2888
aVguaranteed
p2889
aVleap forward
p2890
aVtalk
p2891
aVelected
p2892
aVBirthday
p2893
aVWatch
p2894
aVBirthday
p2895
aVturns
p2896
aVRemember
p2897
aVWatch
p2898
aVinterview
p2899
as.