(dp0
Vperson
p1
(lp2
Vdorothy bland
p3
aVdorothy bland
p4
aVdorothy bland
p5
aVderrick rose
p6
aVderrick r
p7
aVderrick rose
p8
aVlamar odom
p9
aVbutler
p10
aVmerle
p11
aVwade
p12
aVkingjames lebron james see
p13
aVanthony davis
p14
aVkyrie irving
p15
aVlebron james
p16
aVstephen curry
p17
aVcorey
p18
aVwilliams
p19
aVdario saric
p20
aVderrick
p21
aVdario saric
p22
aVderrick rose
p23
aVmike conley
p24
aVkosta koufos
p25
aVwade
p26
aVkyle lowry
p27
aVdwyane wade
p28
aVricky
p29
aValston
p30
aVkevin durant
p31
aVluke walton
p32
aVmcdermott
p33
aVbradley beal
p34
aVjohn wall
p35
aVjalen rose
p36
aVtrey
p37
aVnikola vucevic
p38
aVwade
p39
aVrose
p40
aVderrick
p41
aVjames
p42
aVtissot
p43
aVderrick rose
p44
aViman shumpert
p45
aVnick depaula
p46
aVrose
p47
aVtom thibodeau
p48
aVjeremy lin
p49
aVhayward
p50
aVgobert
p51
aVdario saric
p52
aVwade
p53
aVwade
p54
aVgerald green
p55
aVmerle
p56
aVkostas
p57
aVjoakim noah
p58
aVmario chalmers
p59
aVvasilije micic
p60
aVd. rose
p61
aVchris bosh
p62
aVhorford
p63
aVwade
p64
aVj.r. smith
p65
aVdanilo gallinari
p66
aVderrick rose
p67
aVnick saban
p68
aVnick saban
p69
aVnick saban
p70
aVjimmy
p71
aVnick young
p72
aVsteph curry
p73
aVlebronjames lebron
p74
aVnick saban
p75
aVnick saban
p76
aVmichael jordan
p77
aVnick saban
p78
aVderrick rose
p79
aVmakin
p80
aVnat
p81
aVnat
p82
aVkobe bryant
p83
aVkobe bryant
p84
aVtori black
p85
aVlexington steele
p86
aVgreenafe
p87
aVwade
p88
aVfootysupertips
p89
aVjames
p90
aVjamal crawford
p91
aVderrick rose
p92
aVkobe bryant
p93
aVkobe bryant
p94
aVsteve nash
p95
aVkobe bryant
p96
aVkobe bryant
p97
aValdridge
p98
aVcarlisle
p99
aVjordan clarkson
p100
aVjeffrey yourman
p101
aVkobe bryant
p102
aVkobe bryant
p103
aVsam dekker
p104
aVsam d
p105
aVmel daniels
p106
aVjames
p107
aVpaul george
p108
aVpaul george
p109
aVdamian lillard
p110
aVlillard
p111
aVkevin durant
p112
aVjames
p113
aVwade
p114
aVkobe bryant
p115
aVal jefferson
p116
aVkobe bryant
p117
aVderrick rose
p118
aVderrick rose
p119
aVbradley beal
p120
aVjohn wall
p121
aVkevin durant
p122
aVeric spoelstra
p123
aVgerald green
p124
aVjulius peppers
p125
aVstephen curry
p126
aVkobe bryant
p127
aVstephen curry
p128
aVsteph curry
p129
aVkareem abdul-jabbar
p130
aVben carson
p131
aVparsons
p132
aVtim duncan
p133
aVricky
p134
aViman shumpert
p135
aVsteph curry
p136
aVbradley beal
p137
aVjohn wall
p138
aVmarco belinelli
p139
aVrose
p140
aVrose
p141
aVkareem abdul-jabbar
p142
aVben carson
p143
aVben simmons
p144
aVderrick rose
p145
aVtim duncan
p146
aVkobe bryant
p147
aVkobe bryant
p148
aVkobe bryant
p149
aVkobe bryant
p150
aVkobe bryant
p151
aVkobe bryant
p152
aVkobe bryant
p153
aVkobe bryant
p154
aVkobe bryant
p155
aVkobe bryant
p156
aVkobe bryant
p157
aVkobe bryant
p158
aVkobe bryant
p159
aVkobe bryant
p160
aVkobe bryant
p161
aVkobe bryant
p162
aVkobe bryant
p163
aVkobe bryant
p164
aVkobe bryant
p165
aVkobe bryant
p166
aVkobe bryant
p167
aVkobe bryant
p168
aVkobe bryant
p169
aVkobe bryant
p170
aVkobe bryant
p171
aVkobe bryant
p172
aVkobe bryant
p173
aVkobe bryant
p174
aVkobe bryant
p175
aVkobe bryant
p176
aVkobe bryant
p177
aVkobe bryant
p178
aVkobe bryant
p179
aVkobe bryant
p180
aVkobe bryant
p181
aVkobe bryant
p182
aVkobe bryant
p183
aVkobe bryant
p184
aVdiehl
p185
aVkobe bryant
p186
aVkobe bryant
p187
aVkobe bryant
p188
aVkobe bryant
p189
aVkobe bryant
p190
aVkobe bryant
p191
aVgerald green
p192
aVkobe bryant
p193
aVkobe bryant
p194
aVkobe bryant
p195
aVkobe bryant
p196
aVkobe bryant
p197
aVkobe bryant
p198
aVkobe bryant
p199
aVkobe bryant
p200
aVkobe bryant
p201
aVkobe bryant
p202
aVkobe bryant
p203
aVkobe bryant
p204
aVkobe bryant
p205
aVkobe bryant
p206
aVkobe bryant
p207
aVkobe bryant
p208
aVkobe bryant
p209
aVkobe bryant
p210
aVkobe bryant
p211
aVkobe bryant
p212
aVkobe bryant
p213
aVkobe bryant
p214
aVkobe bryant
p215
aVkobe bryant
p216
aVkobe bryant
p217
aVkobe bryant
p218
aVkobe bryant
p219
aVkobe bryant
p220
aVkobe bryant
p221
aVkobe bryant
p222
aVkobe bryant
p223
aVkobe bryant
p224
aVkobe bryant
p225
aVkobe bryant
p226
aVkobe bryant
p227
aVkobe bryant
p228
aVkobe bryant
p229
aVkobe bryant
p230
aVkobe bryant
p231
aVkobe bryant
p232
aVkobe bryant
p233
aVkobe bryant
p234
aVkobe bryant
p235
aVkobe bryant
p236
aVkobe bryant
p237
aVkobe bryant
p238
aVkobe bryant
p239
aVkobe bryant
p240
aVkobe bryant
p241
aVjoakim noah
p242
aVmario chalmers
p243
aVkobe bryant
p244
aVkobe bryant
p245
aVkobe bryant
p246
aVkobe bryant
p247
aVkobe bryant
p248
aVkobe bryant
p249
aVkobe bryant
p250
aVkobe bryant
p251
aVkobe bryant
p252
aVkobe bryant
p253
aVkobe bryant
p254
aVkobe bryant
p255
aVkobe bryant
p256
aVkobe bryant
p257
aVkobe bryant
p258
aVkobe bryant
p259
aVkobe bryant
p260
aVkobe bryant
p261
aVkobe bryant
p262
aVkobe bryant
p263
aVkobe bryant
p264
aVkobe bryant
p265
aVkobe bryant
p266
aVkobe bryant
p267
aVkobe bryant
p268
aVkobe bryant
p269
aVkobe bryant
p270
aVkobe bryant
p271
aVkobe bryant
p272
aVkobe bryant
p273
aVkobe bryant
p274
aVkobe bryant
p275
aVkobe bryant
p276
aVkobe bryant
p277
aVjeremy lin
p278
aVkobe bryant
p279
aVkobe bryant
p280
aVkobe bryant
p281
aVkobe bryant
p282
aVkobe bryant
p283
aVshaq
p284
aVnicki
p285
aVkenny
p286
aVernie
p287
aVgrant
p288
aVkobe bryant
p289
aVmichael jordan
p290
aVjeremy lin stats
p291
aVty lawson
p292
aVchris paul
p293
aVd'angelo russell
p294
aVben simmons
p295
aVlillard
p296
aVdamian lill
p297
aVgibson
p298
aVjoakim noah
p299
aVmario chalmers
p300
aVderrick rose
p301
aVwestbrook
p302
aVjoakim noah
p303
aVmario chalmers
p304
aVjoakim noah
p305
aVmario chalmers
p306
aVjames
p307
aVwade
p308
aVjoakim noah
p309
aVmario chalmers
p310
aVjoakim noah
p311
aVmario chalmers
p312
aVjoakim noah
p313
aVmario chalmers
p314
aVwade
p315
aVkeanurattray
p316
aVmorris
p317
aVrudy gobert
p318
aVrudy gobert
p319
aVdwyane wade
p320
aVkristaps porzingis
p321
aVkevin love
p322
aVtim duncan
p323
aVderrick rose
p324
aVjimmy butler
p325
aVbjelica
p326
aVgerald green
p327
aVwade
p328
aVdelly
p329
aVdwight howard
p330
aVwade
p331
aVcurry
p332
aVbarnes
p333
aVobama
p334
aVjoakim noah
p335
aVmario chalmers
p336
aVyo moneyballcomau
p337
aVcarlisle
p338
aVjames
p339
aVpaul george
p340
aVben carson
p341
aVben carson
p342
aVben carson
p343
aVben carson
p344
aVben carson
p345
aVben carson
p346
aVvan gundy
p347
aVjohnson
p348
aVgriz
p349
aVgriz
p350
aVchris paul
p351
aVgriz
p352
aVgriz
p353
aVgriz
p354
aVgriz
p355
aVtj mcconnell
p356
aVstephen curry
p357
aVderrick rose
p358
aVderrick rose
p359
aVmavericks nowitzki
p360
aVderrick rose
p361
aVderrick rose
p362
aVderrick rose
p363
aVderrick rose
p364
aVderrick rose
p365
aVdrake
p366
aVrunnin
p367
aVderrick rose
p368
aVderrick rose
p369
aVderrick rose
p370
aVderrick rose
p371
aVderrick rose
p372
aVderrick rose
p373
aVderrick rose
p374
aVderrick rose
p375
aVderrick rose
p376
aVderrick rose
p377
aVderrick rose
p378
aVderrick rose
p379
aVderrick rose
p380
aVderrick rose
p381
aVderrick rose
p382
aVderrick rose
p383
aVderrick rose
p384
aVderrick rose
p385
aVderrick rose
p386
aVderrick rose
p387
aVblake griffin
p388
aVderrick rose
p389
aVderrick rose
p390
aVderrick rose
p391
aVderrick rose
p392
aVderrick rose
p393
aVderrick rose
p394
aVstephen curry
p395
aVderrick rose
p396
aVderrick rose
p397
aVderrick rose
p398
aVderrick rose
p399
aVderrick rose
p400
aVderrick rose
p401
aVderrick rose
p402
aVderrick rose
p403
aVderrick rose
p404
aVderrick rose
p405
aVderrick rose
p406
aVderrick rose
p407
aVderrick rose
p408
aVderrick rose
p409
aVsteph curry
p410
aVderrick rose
p411
aVderrick rose
p412
aVderrick rose
p413
aVderrick rose
p414
aVderrick rose
p415
aVderrick rose
p416
aVderrick rose
p417
aVderrick rose
p418
aVderrick rose
p419
aVderrick rose
p420
aVderrick rose
p421
aVjohn wall
p422
aVgeorge
p423
aVjames
p424
aVsaraki
p425
aVjames
p426
aVdamian lillard
p427
aVlillard
p428
aVdamian lillard
p429
aVlillard
p430
aVdamian lillard
p431
aVdamian lillard
p432
aVlillard
p433
aVlex steele
p434
aVgeorge
p435
aVjames
p436
aVsaraki
p437
aVsaraki
p438
aVsaraki
p439
aVsaraki
p440
aVsaraki
p441
aVsaraki
p442
aVstephen
p443
aVsaraki
p444
aVsaraki
p445
aVsaraki
p446
aVsaraki
p447
aVsaraki
p448
aVsaraki
p449
aVsaraki
p450
aVsaraki
p451
aVsaraki
p452
aVsaraki
p453
aVsaraki
p454
aVsteph curry
p455
aVjonathan
p456
aVderrick rose
p457
aVgeorge
p458
aVjames
p459
aVsteph curry
p460
aVrick carlisle
p461
aVphil scrubb
p462
aVgreenafe
p463
aVjames
p464
aVjj hickson
p465
aVjj hickson
p466
aVmichael jordan
p467
aVkobe bryant
p468
aVdemarcus cousins
p469
aVanthony davis
p470
aVjeremy lin
p471
aVlillard
p472
aVbradley beal
p473
aVjohn wall
p474
aVfelton
p475
aVjames
p476
aVpaul george
p477
aVgeorge karl
p478
aVlionel hollins
p479
aVderrick rose
p480
aVkobe bryant
p481
aVmerle
p482
aVandrew
p483
aVderrick rose
p484
aVmerle
p485
aVwade
p486
aVlebron james
p487
aVkobe bryant
p488
aVwestbrook
p489
aVbowman
p490
aVbobby
p491
aVderrick
p492
aVgallinari
p493
aVdwyane wade
p494
aVricky
p495
aVmatt barnes
p496
aVbrandan wright
p497
aVzach randolph
p498
aVmason plumlee
p499
aVsteph curry
p500
aVwade
p501
aVal jefferson
p502
aVhayward
p503
aVgobert
p504
aVsteve kerr
p505
aVparker
p506
aVjames
p507
aVbjelica
p508
aVdario saric
p509
aVsteve nash
p510
aVthaddeus young
p511
aVderrick rose duels russell westbrook
p512
aVricky
p513
aVtj mcconnell
p514
aVnerlens noel
p515
aVdwight howard
p516
aVjoel embiid
p517
aVmixalotdjz kobe bryant
p518
aVjames
p519
aVpaul george
p520
aVderrick rose
p521
aVderrick rose duels russell westbrook
p522
aVderrick rose
p523
aVhextall
p524
aVhinkie
p525
aVderrick rose
p526
aVderrick rose
p527
aVderrick rose
p528
aVderrick rose
p529
aVjames
p530
aVpaul george
p531
aVkobe bryant
p532
aVjames
p533
aVpaul george
p534
aVbjelica
p535
aVjoakim noah
p536
aVmario chalmers
p537
aVlamar odom
p538
aVlamar odom
p539
aVanthony davis
p540
aVal jefferson
p541
aVlamar odom
p542
aVlamar odom
p543
aVderrick rose
p544
aVdirk nowitzki
p545
aVlarry nance , jr.
p546
aVvince carter
p547
aVstephen curry
p548
aVkobe bryant
p549
aVwestbrook
p550
aVderrick rose
p551
aVjimmer fredette
p552
aVlarry malik
p553
aVjames
p554
aVcrawford
p555
aVbjelica
p556
aVbutler
p557
aVbutler
p558
aVrose
p559
aVderrick rose
p560
aVderrick rose
p561
aVjimmy butler
p562
aVjames
p563
aVpaul george
p564
aVdwyane wade
p565
aVjames
p566
aVpaul george
p567
aVmerle
p568
aVchuck
p569
aVhayward
p570
aVgobert
p571
aVfitt
p572
aVanthony davis jersey
p573
aVjimmy butler
p574
aVdion waiters
p575
aVjimmy butler
p576
aVjimmy butler
p577
aVdion waiters
p578
aVmerle
p579
aVdwyane wade
p580
aVricky
p581
aVspitta
p582
aVjames
p583
aVpaul george
p584
aVderrick rose duels russell westbrook
p585
aVmonta ellis
p586
aVruss
p587
aVjames
p588
aVkobe bryant
p589
aVgeorge
p590
aVshaq
p591
aVkenny
p592
aVjeremy lin
p593
aVrose
p594
aVbutler
p595
aVstephen curry
p596
aVtrey
p597
aVsaraki
p598
aVrose
p599
aVbutler
p600
aVlillard
p601
aVdoc rivers
p602
aVlance stephenson
p603
aVcolin powellyour
p604
aVbutler
p605
aVbutler
p606
aVrose
p607
aVsolomon hill
p608
aVwestbrook
p609
aVkevin garnett
p610
aVjared sullinger
p611
aVderrick rose jimmy butler
p612
aVfournier
p613
aVkareem abdul-jabbar
p614
aVricky
p615
aValvin gentry
p616
aVlillard
p617
aVbradley beal
p618
aVdario saric
p619
aVkobe bryant
p620
aVkareem abdul-jabbar
p621
aVhayward
p622
aVjeff teague
p623
aVderrick rose
p624
aVjefferson
p625
aVchris paul
p626
aVwade
p627
aVdwyane wade
p628
aValexis silver
p629
aVderrick rose
p630
aVcarmelo anthony
p631
aVbjelica
p632
aVwade
p633
aVleonard
p634
aVricky
p635
aVwade
p636
aVricky
p637
aVderrick
p638
aVstephen curry
p639
aVbjelica
p640
aVchris paul
p641
aVbjelica
p642
aVjefferson
p643
aVwestbrook
p644
aVkingjames lebron james see
p645
aVdwyane wade
p646
aVchris paul
p647
aVjames
p648
aVkobe bryant
p649
aVjimmy butler
p650
aVwestbrook
p651
aVmalone duncan
p652
aVhayward
p653
aVgobert
p654
aVtrey
p655
aVkobe bryant
p656
aVmichael jordan
p657
aVdirk
p658
aVstephen curry
p659
aVderrick rose
p660
aVkobe bryant fails d'angelo russell
p661
aVwestbrook
p662
aVwade
p663
aVjeremy lin
p664
aVkobe bryant
p665
aVkobe bryant
p666
aVal jefferson
p667
aVpaul
p668
aVgriffin
p669
aVpaul
p670
aVgriffin
p671
aVrick carlisle
p672
aVstephen curry
p673
aVlamar odom
p674
aVlamar odom
p675
aVlamar odom
p676
aVlamar odom
p677
aVhuffington
p678
aVbradley beal
p679
aVjohn wall
p680
aVbradley beal
p681
aVjohn wall
p682
aVlex steele bones bela moretti
p683
aVricky
p684
aVmarca rose
p685
aVwestbrook
p686
aVkristaps porzingis
p687
aVlamarcus aldridge
p688
aVderrick rose
p689
aVadams
p690
aVbjelica
p691
aVwade
p692
aVdwyane wade
p693
aVricky
p694
aVgrey
p695
aVrick carlisle
p696
aVdamian lillard
p697
aVmax
p698
aVdwyane wade
p699
aVricky
p700
aVdamian lillard
p701
aVjamal crawford
p702
aVc.j
p703
aVmccollum
p704
aVwade
p705
aVwiggins
p706
aVdanilo # gallinari
p707
aVthompson
p708
aVjosh smith
p709
aVmichael jordan
p710
aVjames
p711
aVmichael jordan
p712
aVgrantland
p713
aVjeremy lin
p714
aVruss
p715
aVpaul
p716
aVgriffin
p717
aVjames
p718
aVderrick
p719
aVdemarcus cousins
p720
aVlexington steele analizes melissa lauren
p721
aVkobe bryant
p722
aVronnie
p723
aVmason plumlee
p724
aVderrick rose
p725
aVcus nba
p726
aVricky
p727
aVricky
p728
aVricky
p729
aVderozan
p730
aVderrick ros
p731
aVderrick rose
p732
aVstephen curry
p733
aVwestbrook
p734
aVnick depaula
p735
aVnick depaula
p736
aVwade
p737
aVderrick rose
p738
aVjoakim noah
p739
aVricky
p740
aVjoakim noah
p741
aVmario chalmers
p742
aVdemarre carroll
p743
aVjabongindia
p744
aVlillard
p745
aVdemarre carroll
p746
aVdennis rodman
p747
aVdario saric
p748
aVhayward
p749
aVgobert
p750
aVrosherun
p751
aVmax
p752
aVrose
p753
aVbutler
p754
aVrose
p755
aVbutler
p756
aVmerle
p757
aVjeremy lamb
p758
aVjeremy lin
p759
aVderrick rose
p760
aVgrey
p761
aVchris pelcher
p762
aVsteve kerr
p763
aVhayward
p764
aVgobert
p765
aVdamian lillard
p766
aVstephen curry
p767
aVchris paul
p768
aVdallasmavericks rose
p769
aVbutler
p770
aVmavericks rose
p771
aVbutler
p772
aVmel daniels
p773
aVgerald green
p774
aVpatrick beverley
p775
aVwillie cauley-stein
p776
aVdwyane wade
p777
aVricky
p778
aVwin butler
p779
aVbrandon jennings
p780
aVlillard
p781
aVstephen curry
p782
aVdamian lillard
p783
aVtrey
p784
aVal jefferson
p785
aVfaried
p786
aVmorris
p787
aVstephen curry
p788
aVhalo
p789
aVtrey
p790
aVcarlisle
p791
aVstephen curry
p792
aVal jefferson
p793
aVderon williams illinois
p794
aVfaried
p795
aVfournier
p796
aVsteph curry
p797
aVrose
p798
aVmiddleton
p799
aVokafor
p800
aVharrison barnes
p801
aVtim duncan
p802
aVlamar odom
p803
aVanfernee hardaway
p804
aVgerald green
p805
aVdwyane wade
p806
aVduncan
p807
aVrick carlisle
p808
aVstephen curry co.
p809
aVkobe bryant
p810
aVsteph curry
p811
aVrose
p812
aVbutler
p813
aVkevi
p814
aVrose
p815
aVbutler
p816
aVkevi
p817
aVbutler
p818
aVkevi
p819
aVrose
p820
aVbutler
p821
aVkevi
p822
aVwade
p823
aVderrick rose
p824
aVderrick rose
p825
aVricky
p826
aVricky
p827
aVkobe bryant
p828
aVkenny
p829
aVgerald green
p830
aVricky
p831
aVrichie
p832
aVlillard
p833
aVricky
p834
aVbradley beal
p835
aVmerle
p836
aVbart simpson
p837
asVlocation
p838
(lp839
Vdallas
p840
aVdallas
p841
aVdallas
p842
aVmemphis
p843
aVphiladelphia
p844
aVdenver check
p845
aVusa
p846
aVkobe
p847
aVus
p848
aVusa
p849
aVusa
p850
aVoklahoma city thunder
p851
aVmemphis
p852
aVdenver
p853
aVkobe
p854
aVmiami
p855
aVarizona
p856
aVnew york
p857
aVoklahoma city thunder
p858
aVvirginia
p859
aVwashington
p860
aVvirginia
p861
aVwashington
p862
aVvirginia
p863
aVwashington
p864
aVvirginia
p865
aVwashington
p866
aVvirginia
p867
aVwashington
p868
aVvirginia
p869
aVwashington
p870
aVindianapolis
p871
aVmiami
p872
aVcharlotte
p873
aVnice gangbang
p874
aVireland
p875
aVnigeria
p876
aVportland
p877
aVminnesota
p878
aVportland
p879
aVoklahoma city thunder
p880
aVjapan
p881
aVsierra leone
p882
aVoklahoma city thunder
p883
aVchicago
p884
aVoklahoma city thunder
p885
aVst. croix
p886
aVmemphis
p887
aVportland
p888
aVmiami
p889
aVamsterdam
p890
aVmemphis
p891
aVportland
p892
aVusa
p893
aVbrooklyn
p894
aVportland
p895
aVsacramento
p896
aVsydney
p897
aVmanila
p898
aVasia
p899
aVparis
p900
aVfrance
p901
aVseattle
p902
aVphiladelphia
p903
aVoklahoma
p904
aVoklahoma city thunder
p905
aVmemphis
p906
aVportland
p907
aVchicago
p908
aVjapan
p909
aVohio
p910
aVmemphis
p911
aVportland
p912
aVdallas
p913
aVsouth east asia
p914
aVphilippines
p915
aVnewyork
p916
aVcavs-knicks
p917
aVmemphis
p918
aVnew york
p919
aVusa
p920
aVtoronto
p921
aVtoronto
p922
aVcharlestown
p923
aVlondon
p924
aVmemphis
p925
aVmiami
p926
aVutah
p927
aVsage steele
p928
aVchicago
p929
aVsyria
p930
aVsyria
p931
aVsyria
p932
aVsyria
p933
aVsyria
p934
aVsyria
p935
aVsyria
p936
aVsyria
p937
aVsyria
p938
aVsyria
p939
aVsyria
p940
aVsyria
p941
aVsyria
p942
aVchicago
p943
aVus
p944
aVmiami
p945
aVdallas
p946
aVtoronto
p947
aVl.a.
p948
aVlos angeles clippers
p949
aVoklahoma city
p950
aVmiami
p951
aVindiana
p952
aVhouston
p953
aVsacramento
p954
aVamerica
p955
aVmiami
p956
aVportland
p957
aVchicago
p958
aVmiami
p959
aVminnesota
p960
aVarizona
p961
aVarizona
p962
aVoregon
p963
aVmiami
p964
aVdallas
p965
aVatlanta
p966
aVnew orleans
p967
aVlouisville
p968
aVmemphis
p969
aVlondon
p970
aVlondon
p971
aVjordan
p972
aVchicago stadium
p973
aVlosangeles
p974
aVjordan kobe hakeem shaq bird
p975
aVtaiwan
p976
aVchina
p977
aVnew york
p978
aVtaiwan
p979
aVchina
p980
aVtaiwan
p981
aVchina
p982
aVtaiwan
p983
aVchina
p984
aVtaiwan
p985
aVchina
p986
aVtaiwan
p987
aVchina
p988
aVjordan
p989
aVchicago stadium
p990
aVsanfrancisco
p991
aVoklahoma city thunder
p992
aVgoa
p993
aVindia
p994
aVmiami
p995
aVminnesota
p996
aVtokyo
p997
aVjapan
p998
aVmiami
p999
aVlondon
p1000
aVlos angeles
p1001
aVklay
p1002
aVturkey
p1003
aVdetroit
p1004
aVjapan
p1005
aVhong kong standard
p1006
aVchina
p1007
aVl.a.
p1008
aVchicago
p1009
aVoklahoma city thunder ucla
p1010
aVpau gasol
p1011
aVjapan
p1012
aVtoronto
p1013
aVportland
p1014
aVportland
p1015
aVportland
p1016
aVgoa
p1017
aVtoronto
p1018
aVnew york
p1019
aVphiladelphia
p1020
aVuganda
p1021
aVindianapolis
p1022
aVboston
p1023
aVdenver
p1024
aVjapan
p1025
aVdenver
p1026
aVjapan
p1027
aVjapan
p1028
aVseattle
p1029
aVusa
p1030
aVchicago
p1031
aVchicago
p1032
aVmemphis
p1033
aVchicago
p1034
aVportland
p1035
asVorganization
p1036
(lp1037
Vchicago bulls
p1038
aVchicago bulls
p1039
aVbulls
p1040
aVgrizzlies
p1041
aVnba
p1042
aVtimberwolves
p1043
aVnba
p1044
aVafl
p1045
aVlakers los angeles lakers
p1046
aVdallas # mavericks nba
p1047
aVnba
p1048
aVbulls
p1049
aVokc
p1050
aVnba # clippers los angeles clippers la mens
p1051
aVnbl
p1052
aVnba
p1053
aVsixers
p1054
aVnba nba
p1055
aVsixers
p1056
aVlower merion hs
p1057
aVbuckeyes
p1058
aVnba
p1059
aVnba
p1060
aVgsw
p1061
aVnba
p1062
aVnba star ray allen
p1063
aVspalding nba street basketball
p1064
aVnba # warriors stephen curry golden state
p1065
aVwestchester knicks
p1066
aVokc
p1067
aVnba chicago bulls
p1068
aVnba
p1069
aVnba
p1070
aVnba
p1071
aVsuns
p1072
aVnba
p1073
aVnhl
p1074
aVama
p1075
aVnhl
p1076
aVnfl
p1077
aVbengals
p1078
aVnew boys authentic adidas golden state warriors long sleeved jersey
p1079
aVnba
p1080
aVutah jazz carlos boozer jersey
p1081
aVnba
p1082
aVnba utah jazz patch
p1083
aVnba
p1084
aVutah jazz carlos boozer jersey
p1085
aVnba
p1086
aVnba utah jazz patch
p1087
aVnba
p1088
aVbulls
p1089
aVtimberwolves
p1090
aVmiami herald
p1091
aVcleveland cavaliers
p1092
aVnba
p1093
aVchicago bulls
p1094
aVokc
p1095
aVchicago bulls
p1096
aVnba
p1097
aVgrizzlies
p1098
aVnba
p1099
aVnba
p1100
aVbulls
p1101
aVcleveland cavaliers
p1102
aVnba
p1103
aVbbc
p1104
aVbbc
p1105
aVbulls
p1106
aVnba
p1107
aVnfl
p1108
aVnba
p1109
aVla lakers
p1110
aVnhl
p1111
aVnfl
p1112
aVdenver nuggets
p1113
aVgolden state warriors
p1114
aVhouston rockets nba basketball youth
p1115
aVgolden state warriors
p1116
aVnba
p1117
aVdeals vintage boston celtics
p1118
aVnba # rockets
p1119
aVjamesharden houston rockets
p1120
aVnba # basketball vintage rare dennis rodman detroit # pistons sand knit # jersey size
p1121
aVnba
p1122
aVchicago bulls
p1123
aVnba
p1124
aVacca
p1125
aVnba
p1126
aVnba
p1127
aVforgetaboutjay nuggets
p1128
aVnba league
p1129
aVfleer
p1130
aVafl nba
p1131
aVnba keeper league
p1132
aVnba khandwa rt
p1133
aVondo nba
p1134
aVleave bulls
p1135
aVnba
p1136
aVnbafinals los angeles lakers
p1137
aVgolden state warriors
p1138
aVstaples center
p1139
aVsixers
p1140
aVreal madrid
p1141
aVcavaliers
p1142
aVnba cleveland cavaliers
p1143
aVtimberwolves
p1144
aVdwyane wade
p1145
aVschroder
p1146
aVnba
p1147
aVnba
p1148
aVcleveland cavaliers nba
p1149
aVnba
p1150
aVholofoil relic chicago bulls
p1151
aVnfl
p1152
aVnfl
p1153
aVnfl
p1154
aVnba hoops dwyane wade birds
p1155
aVtopps dwyane wade rookie
p1156
aVnfl
p1157
aVnfl
p1158
aVtopps finest chicago bulls
p1159
aVnfl
p1160
aVchicago bulls
p1161
aVwildcats
p1162
aVnba
p1163
aVnfl
p1164
aVnba
p1165
aVsan antonio spurs
p1166
aVnba detroit pistons artwork
p1167
aVnba # celtics
p1168
aVboston celtics jersey kevin garnett adidas basketball youth
p1169
aVespn
p1170
aVespn
p1171
aVnba
p1172
aVlos angeles lakers
p1173
aVbrooklyn nets
p1174
aVlakers
p1175
aVnba
p1176
aVnba
p1177
aVatlantahawks throwback atlanta hawks
p1178
aVnba
p1179
aVnfl
p1180
aVnbl goulding
p1181
aVnba
p1182
aVunited
p1183
aVnba logoman crew sock
p1184
aVnba detroit pistons artwork
p1185
aVtoronto raptors
p1186
aVt.cond0anj6ldf clippers
p1187
aVdwight howard houston rockets
p1188
aVchicago bulls
p1189
aVokc
p1190
aVnba
p1191
aVnba
p1192
aVchicago bulls
p1193
aVnba
p1194
aVokc
p1195
aVbrothers killed in car crash on way to school
p1196
aVbrothers killed in car crash on way to school
p1197
aVbrothers killed in car crash on way to school
p1198
aVnba
p1199
aVhornets
p1200
aVbrothers killed in car crash on way to school
p1201
aVbrothers killed in car crash on way to school
p1202
aVbrothers killed in car crash on way to school
p1203
aVallen iverson philadelphia 76ers red throwback jersey men
p1204
aVmavericks
p1205
aVnfl
p1206
aVlakers
p1207
aVnba
p1208
aVnfl
p1209
aVnba
p1210
aVnba
p1211
aVespn
p1212
aVyahoo
p1213
aVwarriors # cavs
p1214
aVokc # clippers nba
p1215
aVnba
p1216
aVespn
p1217
aVyahoo
p1218
aVclippers
p1219
aVrockets
p1220
aVlebron james
p1221
aVnba grant hill says okc
p1222
aVtrail blazers
p1223
aVgrizzlies
p1224
aVnba
p1225
aVchicago bulls
p1226
aVnba
p1227
aVokc
p1228
aVmavericks
p1229
aVspurs
p1230
aVpistons
p1231
aVdetroit free press
p1232
aVcharlotte hornets
p1233
aVnba rt
p1234
aVbbc # nba # lakers
p1235
aVbryant panini
p1236
aVlos angeles lakers
p1237
aVnba
p1238
aVnfl
p1239
aVderrick rose drops
p1240
aVnba
p1241
aVderrick rose drops
p1242
aVnba
p1243
aVgolden state warriors
p1244
aVghana # london # ottawa # washington # newyork # nba
p1245
aVsporting # buzz dallas # mavericks blue
p1246
aVnba
p1247
aVnba
p1248
aVderon williams
p1249
aVcavaliers
p1250
aVknicks
p1251
aVnba
p1252
aVokc
p1253
aVnba
p1254
aVpackers
p1255
aVespn
p1256
aVchicago bulls beat cleveland cavaliers
p1257
aVnba
p1258
aVbulls
p1259
aVterra trail blazers
p1260
aVbulls
p1261
aVhornets
p1262
aVterra trail blazers
p1263
aVbulls
p1264
aVhornets
p1265
aVnba
p1266
aVnba
p1267
aVmemphis grizzlies
p1268
aVnba
p1269
aVbulls
p1270
aVheat y hornets
p1271
aVadidas portland trail blazers damian lillard rip city # jersey youth
p1272
aVdiscount trail blazers
p1273
aVbulls
p1274
aVheat y hornets
p1275
aVbulls
p1276
aVheat y hornets
p1277
aVchicago bulls
p1278
aVbulls
p1279
aVheat y hornets
p1280
aVbulls
p1281
aVheat y hornets
p1282
aVsan antonio spurs
p1283
aVnba
p1284
aVbulls
p1285
aVheat y hornets
p1286
aVbulls
p1287
aVheat y hornets
p1288
aVnba
p1289
aVbulls
p1290
aVheat y hornets
p1291
aVnba
p1292
aVcleveland cavaliers
p1293
aVnba
p1294
aVnba
p1295
aVdallas mavericks
p1296
aVcharlotte hornets
p1297
aVdenver nuggets
p1298
aVutah jazz trail blazers
p1299
aVbulls
p1300
aVheat y hornets
p1301
aVnba
p1302
aVbulls
p1303
aVhornets
p1304
aVbulls
p1305
aVhornets
p1306
aVbulls
p1307
aVheat y hornets
p1308
aVbulls
p1309
aVheat y hornets
p1310
aVbulls
p1311
aVnba
p1312
aVnba
p1313
aVnba
p1314
aVyoutube # nba2k16 nuggets
p1315
aVbulls
p1316
aVheat y hornets
p1317
aVnba
p1318
aVbulls
p1319
aVheat y hornets
p1320
aVnascar
p1321
aVbulls
p1322
aVheat y hornets
p1323
aVbulls
p1324
aVheat y hornets
p1325
aVbulls
p1326
aVheat y hornets
p1327
aVgolden state warriors
p1328
aVbulls
p1329
aVheat y hornets
p1330
aVbulls
p1331
aVheat y hornets
p1332
aVchicago bulls
p1333
aVnba
p1334
aVbulls
p1335
aVnba star derrick rose
p1336
aVnba
p1337
aVnba harris
p1338
aVla lakers
p1339
aVnba rt
p1340
aVepic fails
p1341
aVchicago bulls
p1342
aVkings
p1343
aVnba
p1344
aVnfl
p1345
aVnba
p1346
aVnba houston rockets panini
p1347
aVnba
p1348
aVepic fails
p1349
aVepic fails
p1350
aVepic fails
p1351
aVcharlotte hornets
p1352
aVbulls
p1353
aVchicago bulls
p1354
aVepic fails
p1355
aVleave bulls
p1356
aVdeals boston celtics
p1357
aVnba champions adidas
p1358
aVnba
p1359
aVnba
p1360
aVlexington steele mounts
p1361
aVclippers
p1362
aVnba
p1363
aVyoutube rt
p1364
aVfdny
p1365
aVnba
p1366
aVnba
p1367
aVcavaliers
p1368
aVnba cleveland cavaliers
p1369
aVnba
p1370
aVclippers
p1371
aVchicago bulls
p1372
aVjames # nba
p1373
aVnba
p1374
aVbest vintage amf voit dave cowens boston # celtics
p1375
aVnba
p1376
aVsacramento kings
p1377
aVgolden state warriors
p1378
aVnba # knicks
p1379
aVnba philippines
p1380
aVnba asics
p1381
aVnba
p1382
aVnba
p1383
aVnfl
p1384
aVnba
p1385
aVnfl
p1386
aVnba
p1387
aVnfl
p1388
aVnba
p1389
aVnfl
p1390
aVnba
p1391
aVnfl
p1392
aVnba
p1393
aVnfl
p1394
aVnba
p1395
aVnfl
p1396
aVnba
p1397
aVnfl
p1398
aVnba
p1399
aVnfl
p1400
aVnba
p1401
aVnfl
p1402
aVnba
p1403
aVnfl
p1404
aVnba
p1405
aVnfl
p1406
aVnba
p1407
aVnfl
p1408
aVnba
p1409
aVnfl
p1410
aVnba
p1411
aVnfl
p1412
aVnba
p1413
aVnfl
p1414
aVnba
p1415
aVnfl
p1416
aVnba
p1417
aVnfl
p1418
aVnba
p1419
aVnfl
p1420
aVnba
p1421
aVnfl
p1422
aVnba
p1423
aVnfl
p1424
aVnba
p1425
aVnfl
p1426
aVnba
p1427
aVnfl
p1428
aVnba
p1429
aVnfl
p1430
aVnba
p1431
aVnfl
p1432
aVnba
p1433
aVnfl
p1434
aVnba
p1435
aVnfl
p1436
aVnba
p1437
aVnfl
p1438
aVnba
p1439
aVnfl
p1440
aVnba
p1441
aVnfl
p1442
aVnba
p1443
aVnfl
p1444
aVnba
p1445
aVnfl
p1446
aVnba
p1447
aVnfl
p1448
aVnba
p1449
aVnfl
p1450
aVnba
p1451
aVnfl
p1452
aVnba
p1453
aVnfl
p1454
aVnba
p1455
aVnfl
p1456
aVnba
p1457
aVnfl
p1458
aVnba
p1459
aVnfl
p1460
aVnba
p1461
aVnfl
p1462
aVnba
p1463
aVnfl
p1464
aVnba
p1465
aVnfl
p1466
aVnba
p1467
aVnfl
p1468
aVnba
p1469
aVnfl
p1470
aVnba
p1471
aVnfl
p1472
aVnba
p1473
aVnfl
p1474
aVnba
p1475
aVnfl
p1476
aVnba
p1477
aVnfl
p1478
aVnba
p1479
aVnfl
p1480
aVnba
p1481
aVnfl
p1482
aVnba
p1483
aVnfl
p1484
aVnba
p1485
aVnfl
p1486
aVnba
p1487
aVnfl
p1488
aVnba
p1489
aVnfl
p1490
aVnba
p1491
aVnfl
p1492
aVnba
p1493
aVnfl
p1494
aVnba
p1495
aVnfl
p1496
aVnba
p1497
aVnfl
p1498
aVnba
p1499
aVnfl
p1500
aVnba
p1501
aVnfl
p1502
aVnba
p1503
aVnfl
p1504
aVnba
p1505
aVnfl
p1506
aVgrizzlies
p1507
aVyahoo sports
p1508
aVnba
p1509
aVbulls
p1510
aVhornets
p1511
aVleave bulls
p1512
aVnba # boston # celtics
p1513
aVnba # celtics # arena boston celtics
p1514
aVnba
p1515
aVmagics # knicks
p1516
aVleave bulls
p1517
aVleave bulls
p1518
aVleave bulls
p1519
aVnba
p1520
aVleave bulls
p1521
aVleave bulls
p1522
aVnba purdue university basketball court
p1523
aVssp miami heat
p1524
aVnba
p1525
aVpistons
p1526
aVsuns
p1527
aVnba
p1528
aVnba # celtics marcus smart
p1529
aVgold celtics
p1530
aVnba
p1531
aVnba
p1532
aVfleer
p1533
aVnba
p1534
aVceltics # jersey boston celtics
p1535
aVnba
p1536
aVokc
p1537
aVnba
p1538
aVnba
p1539
aVpuntclubinvest
p1540
aVnba
p1541
aVnba
p1542
aVnba
p1543
aVpredictions nhl nfl
p1544
aVpanini signatures
p1545
aVgolden state warriors
p1546
aVchicago bulls
p1547
aVnba nba
p1548
aVnba
p1549
aVnba
p1550
aVnba
p1551
aVnational basketball association
p1552
aVt.cofoilmm7jzi lakers
p1553
aVspurs
p1554
aVspurs
p1555
aVnba 2k16 & amp
p1556
aVnew locker codes & amp
p1557
aVleave bulls
p1558
aVgolden state warriors
p1559
aVnba
p1560
aVnba
p1561
aVbulls
p1562
aVmavericks
p1563
aVfox boston
p1564
aVwashington post
p1565
aVfox boston
p1566
aVwashington post
p1567
aVfox boston
p1568
aVwashington post
p1569
aVfox boston
p1570
aVwashington post
p1571
aVfox boston
p1572
aVwashington post
p1573
aVfox boston
p1574
aVnba
p1575
aVwashington post
p1576
aVclippers
p1577
aVjr smith teams up
p1578
aVdenver nuggets
p1579
aVgolden state warriors
p1580
aVnba
p1581
aVnba
p1582
aVnba
p1583
aVnba
p1584
aVnba
p1585
aVchicago bulls
p1586
aVnowitzki mavericks
p1587
aVbasketball nba
p1588
aVchicago bulls
p1589
aVsporting # buzz womens nba
p1590
aVnba
p1591
aVchicago bulls
p1592
aVchicago bulls
p1593
aVchicago bulls
p1594
aVnba
p1595
aVchicago bulls
p1596
aVchicago bulls
p1597
aVchicago bulls
p1598
aVchicago bulls
p1599
aVpor trail blazers-mem grizzlies
p1600
aVadidas # nba los angeles lakers
p1601
aVbryant gold city
p1602
aVbryant panini
p1603
aVlos angeles lakers
p1604
aVchicago bulls
p1605
aVchicago bulls
p1606
aVchicago bulls
p1607
aVchicago bulls
p1608
aVchicago bulls
p1609
aVchicago bulls
p1610
aVchicago bulls
p1611
aVchicago bulls
p1612
aVchicago bulls
p1613
aVchicago bulls
p1614
aVchicago bulls
p1615
aVchicago bulls
p1616
aVchicago bulls
p1617
aVdallas mavericks
p1618
aVchicago bulls
p1619
aVchicago bulls
p1620
aVchicago bulls
p1621
aVchicago bulls
p1622
aVnba
p1623
aVchicago bulls
p1624
aVnba # clippers nba los angeles clippers
p1625
aVchicago bulls
p1626
aVchicago bulls
p1627
aVchicago bulls
p1628
aVchicago bulls
p1629
aVchicago bulls
p1630
aVchicago bulls
p1631
aVnba
p1632
aVchicago bulls
p1633
aVchicago bulls
p1634
aVchicago bulls
p1635
aVchicago bulls
p1636
aVchicago bulls
p1637
aVchicago bulls
p1638
aVchicago bulls
p1639
aVchicago bulls
p1640
aVchicago bulls
p1641
aVchicago bulls
p1642
aVchicago bulls
p1643
aVnba # basketball champion indiana # pacers reggie miller vintage # jersey nba vintage men
p1644
aVchicago bulls
p1645
aVnba
p1646
aVmavericks-cha hornets
p1647
aVchicago bulls
p1648
aVnba
p1649
aVchicago bulls
p1650
aVnba
p1651
aVnba
p1652
aVchicago bulls
p1653
aVchicago bulls
p1654
aVchicago bulls
p1655
aVchicago bulls
p1656
aVchicago bulls
p1657
aVchicago bulls
p1658
aVchicago bulls
p1659
aVchicago bulls
p1660
aVchicago bulls
p1661
aVchicago bulls
p1662
aVchicago bulls
p1663
aVwinning sports picks & amp
p1664
aVpredictions nhl nfl
p1665
aVcha # deal boston celtics
p1666
aVla lakers
p1667
aVauction boston celtics
p1668
aVla lakers
p1669
aVespn bradley beal
p1670
aVnba
p1671
aVyoutube nba
p1672
aVnba
p1673
aVtrail blazers
p1674
aVgrizzlies
p1675
aVgrizzlies
p1676
aVgrizzlies
p1677
aVgrizzlies
p1678
aVmemphis trail blazers
p1679
aVtrail blazers
p1680
aVgrizzlies
p1681
aVyahoo sports
p1682
aVtopps co-signers tim duncan spurs kevin garnett celtics
p1683
aVportland trail blazers
p1684
aVnba
p1685
aVnba nba capsules
p1686
aVcapsulesnew york timesthe mavericks
p1687
aVnfl & amp
p1688
aVnfl
p1689
aVpredictions nhl nfl
p1690
aVnfl
p1691
aVmagics # knicks
p1692
aVnba
p1693
aVbulls
p1694
aVtoronto raptors
p1695
aVyahoo sports
p1696
aVnba
p1697
aVnba
p1698
aVuniversity basketball
p1699
aVnewyorkknicks # knicks
p1700
aVnba
p1701
aVnba # rockets houston rockets
p1702
aVnba
p1703
aVnike
p1704
aVnba
p1705
aVmavericks
p1706
aVspurs
p1707
aVnba
p1708
aVnfl
p1709
aVnba
p1710
aVgrizzlies
p1711
aVcavaliers
p1712
aVnba lebron james cleveland cavaliers majestic sewn jersey sz l
p1713
aVla lakers
p1714
aVnba
p1715
aVlal
p1716
aVnba
p1717
aVmavericks
p1718
aVnba jam
p1719
aVnba
p1720
aVcavaliers
p1721
aVknicks
p1722
aVnfl
p1723
aVnba nba
p1724
aVnba
p1725
aVchicago bulls
p1726
aVgerald green was unconscious & amp
p1727
aVgerald green was unconscious & amp
p1728
aVnba
p1729
aVnba
p1730
aVnba
p1731
aVresultados
p1732
aVnba
p1733
aVnba
p1734
aVnba
p1735
aVnba
p1736
aVnba ncaa texas longhorns
p1737
aVnba
p1738
aVcleveland cavaliers
p1739
aVnba
p1740
aVnba adidas swingman nba jersey # boston # celtics rajon rondo black electric
p1741
aVnba # celtics # arena adidas swingman nba jersey boston celtics rajon rondo black electric
p1742
aVnike lebron
p1743
aVchicago bulls
p1744
aVnba
p1745
aVtopps
p1746
aVnba the socio-economic rights and accountability project
p1747
aVnigerian bar association
p1748
aVnba
p1749
aVnba
p1750
aVgolden state warriors
p1751
aVtimberwolves
p1752
aVhornets
p1753
aVgerald green was unconscious & amp
p1754
aVgerald green was unconscious & amp
p1755
aVnba
p1756
aVt.coiydbpoyeyl warriors
p1757
aVnba
p1758
aVnba
p1759
aVnba
p1760
aVcavaliers
p1761
aVespn nba
p1762
aVclippers
p1763
aVnba
p1764
aVsixers
p1765
aVlakers
p1766
aVnba
p1767
aVreuters
p1768
aVreuters
p1769
aVreuters
p1770
aVnba
p1771
aVreuters
p1772
aVreuters
p1773
aVnba
p1774
aVreuters
p1775
aVreuters
p1776
aVreuters
p1777
aVnba ricky propicia el top
p1778
aVnba ricky propicia el top
p1779
aVnba ricky propicia el top
p1780
aVnba ricky
p1781
aVreuters
p1782
aVreuters
p1783
aVreuters
p1784
aVreuters
p1785
aVreuters
p1786
aVnba street homecourt
p1787
aVnew york times
p1788
aVnew york times
p1789
aVnew york times
p1790
aVgerald green was unconscious & amp
p1791
aVgerald green was unconscious & amp
p1792
aVnba
p1793
aVhouston rockets
p1794
aVnba
p1795
aVnba nba
p1796
aVsixers
p1797
aVnba draft combine
p1798
aVnba
p1799
aVnba jam
p1800
aVgolden state warriors
p1801
aVnew york times
p1802
aVnew york times
p1803
aVnew york times
p1804
aVnew york times
p1805
aVnew york times
p1806
aVnew york times
p1807
aVnew york times
p1808
aVnew york times
p1809
aVnew york times
p1810
aVnew york times
p1811
aVgerald green was unconscious & amp
p1812
aVyoutube
p1813
aVchicago bulls
p1814
aVchicago bulls
p1815
aVnhl
p1816
aVchicago bulls
p1817
aVchicago bulls
p1818
aVchicago bulls
p1819
aVchicago bulls
p1820
aVnba
p1821
aVceltics
p1822
aVnba
p1823
aVnba
p1824
aVnba
p1825
aVnba
p1826
aVverizon
p1827
aVdenver nuggets
p1828
aVgolden state warriors
p1829
aVleave bulls
p1830
aVnba
p1831
aVnba
p1832
aVnba
p1833
aVcharlotte hornets
p1834
aVnba
p1835
aVnba
p1836
aVbulls
p1837
aVchicago bulls
p1838
aVmavericks
p1839
aVnba
p1840
aVnba
p1841
aVbasketball # lakers # deals los angeles lakers
p1842
aVlos angeles lakers
p1843
aVnba
p1844
aVlakers
p1845
aVnba
p1846
aVcaleb sick self oop nba golden state warriors mens french terry
p1847
aVnba
p1848
aVbargain chicago bulls
p1849
aVbulls
p1850
aVclippers
p1851
aVnba
p1852
aVnba dado arnautovic
p1853
aVjovery zheng new orleans # pelicans
p1854
aVatlanta # hawks
p1855
aVwestchester knicks
p1856
aVnba
p1857
aVtoronto raptors
p1858
aVdallas mavericks
p1859
aVnba
p1860
aVnba
p1861
aVnba
p1862
aVclippers
p1863
aVgolden state warriors
p1864
aVnba
p1865
aVnba
p1866
aVvanishing drive indiana # pacers
p1867
aVmiami # heat # nba
p1868
aVpacers
p1869
aVbulls
p1870
aVheat y hornets
p1871
aVbulls
p1872
aVminnesota rose
p1873
aVbulls
p1874
aVtimberwolves news rose
p1875
aVbulls
p1876
aVbulls
p1877
aVdallas mavericks
p1878
aVnew york # knicks
p1879
aVmilwaukee
p1880
aVnba
p1881
aVkings
p1882
aVnba
p1883
aVnba
p1884
aVnascar
p1885
aVnba
p1886
aVbaloncesto nba
p1887
aVbulls
p1888
aVhornets
p1889
aVmens new orleans pelicans new era navy black current logo
p1890
aVli-ning
p1891
aVnba
p1892
aVnew orleans pelicans nba
p1893
aVmens new orleans pelicans
p1894
aVnavy
p1895
aVnba
p1896
aVdion waiters
p1897
aVgerald green was unconscious & amp
p1898
aVgerald green was unconscious & amp
p1899
aVnba
p1900
aVboston # celtics
p1901
aVwashington # wizards
p1902
aVceltics
p1903
aVgeorgetown
p1904
aVnba
p1905
aVbulls heat 96x84 wolves hornets
p1906
aVmavs jazz 96x84 nuggets grizzlies
p1907
aVnba
p1908
aVnba
p1909
aVcommonwealth
p1910
aVwtop
p1911
aVnba
p1912
aVnba post-draft power rankings
p1913
aVclippers
p1914
aVchicago bulls
p1915
aVbrooklyn # nets
p1916
aVlos angeles # lakers
p1917
aVlakers
p1918
aVstubhub
p1919
aVnba
p1920
aVmemphis grizzlies
p1921
aVclippernation grizzlies
p1922
aVnba
p1923
aVindiana pacers
p1924
aVcavs
p1925
aVknicks
p1926
aVchicago bulls
p1927
aVpacers
p1928
aVnba
p1929
aVfleer michael jordan
p1930
aVbasketball card chicago bulls
p1931
aVmichaeljordan bulls
p1932
aVnba
p1933
aVboston celtics
p1934
aVnba
p1935
aVarizona state ncaa
p1936
aVcavaliers
p1937
aVnba nba lebron james cleveland cavaliers swingman gold jersey size
p1938
aVhouston rockets
p1939
aVnba # basketball nba
p1940
aVnba
p1941
aVnba
p1942
aVwildcats
p1943
aVnba
p1944
aVnba
p1945
aVmagic
p1946
aVtoronto # raptors
p1947
aVnba
p1948
aVal jefferson full
p1949
aVmavericks
p1950
aVwildcats
p1951
aVgrizzlies
p1952
aVnba
p1953
aVhawks
p1954
aVnba
p1955
aVbulls
p1956
aVbulls
p1957
aVbulls
p1958
aVtoronto raptors
p1959
aVnba
p1960
aVnbl
p1961
aVnba
p1962
aVnba
p1963
aVnba # magic mitchell & amp
p1964
aVnike air max lebron xi low 11 ch pack china porcelain white blue size
p1965
aVnba buddy lee replacement cord-pink
p1966
aVnba
p1967
aVnba # boston # celtics logo plaque basketball nba
p1968
aVnba # celtics
p1969
aVboston celtics
p1970
aVminnesota timberwolves yearbook
p1971
aVnba # celtics
p1972
aVceltics # jersey kevin garnett boston celtics
p1973
aVnew locker codes & amp
p1974
aVsporting rt
p1975
aVnba
p1976
aVhornets
p1977
aVnba
p1978
aVnba
p1979
aVnba raptors-orlando magic nba
p1980
aVnba golden state warriors men 's scrum tee
p1981
aVbleacher blue
p1982
aVcleveland # cavaliers
p1983
aVphiladelphia
p1984
aVcavs
p1985
aVnba
p1986
aVnba
p1987
aVsixers
p1988
aVnba jam
p1989
aVnba
p1990
aVjazz
p1991
aVbulls
p1992
aVhornets
p1993
aVmavericks
p1994
aVclippers
p1995
aVtimberwolves
p1996
aVmilwaukee bucks vs. new york knicks
p1997
aVnba khandwa
p1998
aVbbc
p1999
aVbbc
p2000
aVnba
p2001
aVt.cosued4ren2m bulls
p2002
aVokc
p2003
aVnhl
p2004
aVnfl
p2005
aVmlb
p2006
aVnba
p2007
aVnba
p2008
aVnba
p2009
aVpsn
p2010
aVnba
p2011
aVnba
p2012
aVnba
p2013
aVnba
p2014
aVnba
p2015
aVnba
p2016
aVnba
p2017
aVgm
p2018
aVusa basketball snub
p2019
aVnba
p2020
aVnba
p2021
aVclippers
p2022
aVbulls
p2023
aVnba
p2024
aVminneapolis star tribune
p2025
aVlakersnation los angeles lakers
p2026
aVbrooklyn nets
p2027
aVlos angeles lakers
p2028
aVhornets
p2029
aVmavericks
p2030
aVhornets
p2031
aVmavericks
p2032
aVindiana pacers
p2033
aVokc
p2034
aVlakers los angeles lakers
p2035
aVclippers
p2036
aVnba
p2037
aVnba # boston # celtics
p2038
aVnba
p2039
aVderrick rose & amp
p2040
aVdurant & amp
p2041
aVbulls
p2042
aVnba
p2043
aVceltics
p2044
aVlakers
p2045
aVbulls
p2046
aVnba
p2047
aVnba
p2048
aVnational basketball association champions golden state warriors
p2049
aVnba
p2050
aVnew york times
p2051
aVnew york times
p2052
aVnew york times
p2053
aVnew york times
p2054
aVnew york times
p2055
aVnba
p2056
aVnba
p2057
aVnba hoops courtside artist proof
p2058
aVnba
p2059
aVnba
p2060
aVlos angeles lakers
p2061
aVnba
p2062
aVnba
p2063
aVnba
p2064
aVnba
p2065
aVchicago bulls
p2066
aVmiami heat
p2067
aVnba # clippers blake griffin lac los angeles clippers basketball youth swingman adidas jersey
p2068
aVchicago bulls
p2069
aVmiami heat
p2070
aVmavericks
p2071
aVnba hoops courtside artist proof
p2072
aVmlb
p2073
aVnba
p2074
aVtimberwolves
p2075
aVtimberwolves
p2076
aVnba
p2077
aVnba
p2078
aVnba
p2079
aVnba
p2080
aVnba
p2081
aVnba
p2082
aVbulls
p2083
aVnba
p2084
aVnba # cavaliers
p2085
aVcleveland cavaliers
p2086
aVnba # cavaliers new cleveland cavaliers
p2087
aVnba
p2088
aVnhl
p2089
aVnfl
p2090
aVmiami heat
p2091
aVnhl
p2092
aVnfl
p2093
aVgiants
p2094
aVnba
p2095
aVnba golden state warriors women
p2096
aVmavericks
p2097
aVnba
p2098
aVnba
p2099
aVnba # trailblazers portland trail blazers sleeveless #
p2100
aVnba
p2101
aVclippers
p2102
aVnba
p2103
aVbrixton topcats basketball club
p2104
aVnfl nhl mlb nba jersey # nba
p2105
aVnba
p2106
aVnba
p2107
aVmavericks
p2108
aVnba
p2109
aVnba
p2110
aVbulls
p2111
aVnascar
p2112
aVnba
p2113
aVnba
p2114
aVnba
p2115
aVjamesharden # jersey adidas swingman nba
p2116
aVnba
p2117
aVpsa fleer rc sticker
p2118
aVbgs
p2119
aVnba # basketball # cavaliers
p2120
aVnba kevin love cleveland cavaliers
p2121
aVnba
p2122
aVt.coquldvmgf13 pistons
p2123
aVsuns
p2124
aVbulls
p2125
aVnba
p2126
aVbulls
p2127
aVrockets
p2128
aVnba
p2129
aVusa basketball snub
p2130
aVlakers
p2131
aVnba power rankings
p2132
aVnba
p2133
aVnba
p2134
aVnba
p2135
aVnba
p2136
aVnba ricky
p2137
aVnba
p2138
aVnba
p2139
aVraptors
p2140
aVbulls
p2141
aVchicago bulls
p2142
aVnba
p2143
aVautograph chicago bulls
p2144
aVnba
p2145
aVlebronjames nike zoom lebron
p2146
aVelite custom florida gators
p2147
aVnba
p2148
aVtopps
p2149
aVnicekicks nba kicks on court
p2150
aVnba
p2151
aVnba
p2152
aVnba
p2153
aVleave bulls
p2154
aVbulls
p2155
aVnba
p2156
aVnba
p2157
aVnba
p2158
aVnba
p2159
aVcamiseta nba jersey chicago
p2160
aVnba
p2161
aVnba basketball
p2162
aVnba
p2163
aVnba basketball
p2164
aVsixers
p2165
aVnba
p2166
aVnba
p2167
aVyahoo
p2168
aVwarriors # cavs
p2169
aVokc # spurs nba
p2170
aVnba
p2171
aVyahoo
p2172
aVdwight howard magic lakers houston rockets basketball
p2173
aVnba
p2174
aVnba
p2175
aVgrizzlies
p2176
aVnba charlotte hornets news & amp
p2177
aVbulls
p2178
aVnba nba golden state warriors women
p2179
aVnba
p2180
aVnba
p2181
aVwarriors
p2182
aVnba
p2183
aVchicago bulls
p2184
aVmiami heat
p2185
aVnba
p2186
aVchicago bulls
p2187
aVmiami heat
p2188
aVnba
p2189
aVchicago bulls
p2190
aVmiami heat
p2191
aVnba
p2192
aVchicago bulls
p2193
aVmiami heat
p2194
aVnba
p2195
aVchicago bulls
p2196
aVmiami heat
p2197
aVnba
p2198
aVchicago bulls
p2199
aVmiami heat
p2200
aVnba
p2201
aVchicago bulls
p2202
aVmiami heat
p2203
aVnba
p2204
aVchicago bulls
p2205
aVmiami heat
p2206
aVnba
p2207
aVchicago bulls
p2208
aVmiami heat
p2209
aVnba
p2210
aVchicago bulls
p2211
aVmiami heat
p2212
aVclippers
p2213
aVbulls
p2214
aVbulls
p2215
aVnba
p2216
aVcavaliers
p2217
aVnba
p2218
aVbbc
p2219
aVnfl
p2220
aVnba
p2221
aVnhl
p2222
aVnfl
p2223
aVnfl
p2224
aVnba
p2225
aVnhl
p2226
aVnfl
p2227
aVnba
p2228
aVmagic
p2229
aVbulls
p2230
aVmiami heat
p2231
aVindiana pacers
p2232
aVnba
p2233
aVboston clutch
p2234
aVnba
p2235
aVt.com3mcj2anvv pistons
p2236
aVnba
p2237
aVnfl
p2238
aVnba
p2239
aVnba
p2240
aVnhl
p2241
aVnfl
p2242
aVbulls
p2243
aVsporting # buzz boys medium dallas # mavericks
p2244
aVnowitzki nba
p2245
aVadidas green
p2246
aVnba
p2247
aVnba
p2248
aVbryant panini
p2249
aVlos angeles lakers
p2250
aVnba # clippers authentic los angeles la clippers blake griffin adidas nba jersey large l
p2251
aVyahoo sports
p2252
aVyoutube
p2253
aVprinceton
p2254
aVyoutube rt
p2255
aVbulls
p2256
aVbulls
p2257
aVchicago bulls
p2258
aVnba
p2259
aVbulls
p2260
aVsixers
p2261
aVnba
p2262
aVbulls
p2263
aVnba
p2264
aVnba
p2265
aVnba
p2266
aVprinceton chin hawks
p2267
aVlos angeles clippers
p2268
aVmemphis grizzlies
p2269
aVbulls
p2270
aVnba
p2271
aVsportsclone store
p2272
aVnba
p2273
aVnba
p2274
aVspurs
p2275
aVknicks
p2276
aVmavericks
p2277
aVnba
p2278
aVnba
p2279
aVyoutube
p2280
aVprinceton
p2281
aVyoutube griz
p2282
aVnba
p2283
aVbulls
p2284
aVbulls
p2285
aVnba
p2286
aVnba # trailblazers vintage nba portland
p2287
aVbulls
p2288
aVbulls
p2289
aVnba
p2290
aVnba
p2291
aVbulls
p2292
aVnba
p2293
aVbulls
p2294
aVespn griz
p2295
aVnba
p2296
aVbulls
p2297
aVbulls
p2298
aVokc
p2299
aVnba
p2300
aVbbc
p2301
aVnba
p2302
aVnba & amp
p2303
aVprinceton low kenny
p2304
aVthe black mamba
p2305
aVespn nba
p2306
aVnba ricky propicia el top
p2307
aVnba
p2308
aVnba
p2309
aVnba
p2310
aVchicago bulls
p2311
aVcharlotte bobcats
p2312
aVnba ricky
p2313
aVnba
p2314
aVnba
p2315
aVnba
p2316
aVnba
p2317
as.